libEGL.so.1:MesaGLInteropEGLExportObject
libEGL.so.1:MesaGLInteropEGLFlushObjects
libEGL.so.1:MesaGLInteropEGLQueryDeviceInfo
libEGL.so.1:eglBindAPI
libEGL.so.1:eglBindTexImage
libEGL.so.1:eglChooseConfig
libEGL.so.1:eglClientWaitSync
libEGL.so.1:eglCopyBuffers
libEGL.so.1:eglCreateContext
libEGL.so.1:eglCreateImage
libEGL.so.1:eglCreatePbufferFromClientBuffer
libEGL.so.1:eglCreatePbufferSurface
libEGL.so.1:eglCreatePixmapSurface
libEGL.so.1:eglCreatePlatformPixmapSurface
libEGL.so.1:eglCreatePlatformWindowSurface
libEGL.so.1:eglCreateSync
libEGL.so.1:eglCreateWindowSurface
libEGL.so.1:eglDestroyContext
libEGL.so.1:eglDestroyImage
libEGL.so.1:eglDestroySurface
libEGL.so.1:eglDestroySync
libEGL.so.1:eglGetConfigAttrib
libEGL.so.1:eglGetConfigs
libEGL.so.1:eglGetCurrentContext
libEGL.so.1:eglGetCurrentDisplay
libEGL.so.1:eglGetCurrentSurface
libEGL.so.1:eglGetDisplay
libEGL.so.1:eglGetError
libEGL.so.1:eglGetPlatformDisplay
libEGL.so.1:eglGetProcAddress
libEGL.so.1:eglGetSyncAttrib
libEGL.so.1:eglInitialize
libEGL.so.1:eglMakeCurrent
libEGL.so.1:eglQueryAPI
libEGL.so.1:eglQueryContext
libEGL.so.1:eglQueryString
libEGL.so.1:eglQuerySurface
libEGL.so.1:eglReleaseTexImage
libEGL.so.1:eglReleaseThread
libEGL.so.1:eglSurfaceAttrib
libEGL.so.1:eglSwapBuffers
libEGL.so.1:eglSwapInterval
libEGL.so.1:eglTerminate
libEGL.so.1:eglWaitClient
libEGL.so.1:eglWaitGL
libEGL.so.1:eglWaitNative
libEGL.so.1:eglWaitSync
libGL.so.1:MesaGLInteropGLXExportObject
libGL.so.1:MesaGLInteropGLXFlushObjects
libGL.so.1:MesaGLInteropGLXQueryDeviceInfo
libGL.so.1:glAreTexturesResidentEXT
libGL.so.1:glDeleteTexturesEXT
libGL.so.1:glGenTexturesEXT
libGL.so.1:glIsTextureEXT
libGL.so.1:glXChooseFBConfig
libGL.so.1:glXChooseFBConfigSGIX
libGL.so.1:glXChooseVisual
libGL.so.1:glXCopyContext
libGL.so.1:glXCreateContext
libGL.so.1:glXCreateContextWithConfigSGIX
libGL.so.1:glXCreateGLXPbufferSGIX
libGL.so.1:glXCreateGLXPixmap
libGL.so.1:glXCreateGLXPixmapWithConfigSGIX
libGL.so.1:glXCreateNewContext
libGL.so.1:glXCreatePbuffer
libGL.so.1:glXCreatePixmap
libGL.so.1:glXCreateWindow
libGL.so.1:glXDestroyContext
libGL.so.1:glXDestroyGLXPbufferSGIX
libGL.so.1:glXDestroyGLXPixmap
libGL.so.1:glXDestroyPbuffer
libGL.so.1:glXDestroyPixmap
libGL.so.1:glXDestroyWindow
libGL.so.1:glXFreeContextEXT
libGL.so.1:glXGetClientString
libGL.so.1:glXGetConfig
libGL.so.1:glXGetContextIDEXT
libGL.so.1:glXGetCurrentContext
libGL.so.1:glXGetCurrentDisplay
libGL.so.1:glXGetCurrentDisplayEXT
libGL.so.1:glXGetCurrentDrawable
libGL.so.1:glXGetCurrentReadDrawable
libGL.so.1:glXGetDriverConfig
libGL.so.1:glXGetFBConfigAttrib
libGL.so.1:glXGetFBConfigAttribSGIX
libGL.so.1:glXGetFBConfigFromVisualSGIX
libGL.so.1:glXGetFBConfigs
libGL.so.1:glXGetProcAddress
libGL.so.1:glXGetProcAddressARB
libGL.so.1:glXGetScreenDriver
libGL.so.1:glXGetSelectedEvent
libGL.so.1:glXGetSelectedEventSGIX
libGL.so.1:glXGetVisualFromFBConfig
libGL.so.1:glXGetVisualFromFBConfigSGIX
libGL.so.1:glXImportContextEXT
libGL.so.1:glXIsDirect
libGL.so.1:glXMakeContextCurrent
libGL.so.1:glXMakeCurrent
libGL.so.1:glXMakeCurrentReadSGI
libGL.so.1:glXQueryContext
libGL.so.1:glXQueryContextInfoEXT
libGL.so.1:glXQueryDrawable
libGL.so.1:glXQueryExtension
libGL.so.1:glXQueryExtensionsString
libGL.so.1:glXQueryGLXPbufferSGIX
libGL.so.1:glXQueryServerString
libGL.so.1:glXQueryVersion
libGL.so.1:glXSelectEvent
libGL.so.1:glXSelectEventSGIX
libGL.so.1:glXSwapBuffers
libGL.so.1:glXUseXFont
libGL.so.1:glXWaitGL
libGL.so.1:glXWaitX
libOSMesa.so.8:OSMesaColorClamp
libOSMesa.so.8:OSMesaCreateContext
libOSMesa.so.8:OSMesaCreateContextAttribs
libOSMesa.so.8:OSMesaCreateContextExt
libOSMesa.so.8:OSMesaDestroyContext
libOSMesa.so.8:OSMesaGetColorBuffer
libOSMesa.so.8:OSMesaGetCurrentContext
libOSMesa.so.8:OSMesaGetDepthBuffer
libOSMesa.so.8:OSMesaGetIntegerv
libOSMesa.so.8:OSMesaGetProcAddress
libOSMesa.so.8:OSMesaMakeCurrent
libOSMesa.so.8:OSMesaPixelStore
libOSMesa.so.8:OSMesaPostprocess
libVkLayer_INTEL_nullhw.so:vkGetDeviceProcAddr
libVkLayer_INTEL_nullhw.so:vkGetInstanceProcAddr
libVkLayer_MESA_device_select.so:vkNegotiateLoaderLayerInterfaceVersion
libVkLayer_MESA_overlay.so:_Z10ImFileOpenPKcS0_
libVkLayer_MESA_overlay.so:_Z10ImHashDataPKvjj
libVkLayer_MESA_overlay.so:_Z10ImStrnicmpPKcS0_j
libVkLayer_MESA_overlay.so:_Z11ImStrdupcpyPcPjPKc
libVkLayer_MESA_overlay.so:_Z13ImStrchrRangePKcS0_c
libVkLayer_MESA_overlay.so:_Z13ImStreolRangePKcS0_
libVkLayer_MESA_overlay.so:_Z14ImFormatStringPcjPKcz
libVkLayer_MESA_overlay.so:_Z15ImFormatStringVPcjPKcS_
libVkLayer_MESA_overlay.so:_Z15ImStrTrimBlanksPc
libVkLayer_MESA_overlay.so:_Z15ImTextStrToUtf8PciPKtS1_
libVkLayer_MESA_overlay.so:_Z17ImTextStrFromUtf8PtiPKcS1_PS1_
libVkLayer_MESA_overlay.so:_Z18ImFileLoadToMemoryPKcS0_Pji
libVkLayer_MESA_overlay.so:_Z18ImLineClosestPointRK6ImVec2S1_S1_
libVkLayer_MESA_overlay.so:_Z18ImTextCharFromUtf8PjPKcS1_
libVkLayer_MESA_overlay.so:_Z20ImParseFormatFindEndPKc
libVkLayer_MESA_overlay.so:_Z22ImFontAtlasBuildFinishP11ImFontAtlas
libVkLayer_MESA_overlay.so:_Z22ImParseFormatFindStartPKc
libVkLayer_MESA_overlay.so:_Z22ImParseFormatPrecisionPKci
libVkLayer_MESA_overlay.so:_Z22ImTriangleClosestPointRK6ImVec2S1_S1_S1_
libVkLayer_MESA_overlay.so:_Z23ImTriangleContainsPointRK6ImVec2S1_S1_S1_
libVkLayer_MESA_overlay.so:_Z24ImTextCountCharsFromUtf8PKcS0_
libVkLayer_MESA_overlay.so:_Z25ImFontAtlasBuildSetupFontP11ImFontAtlasP6ImFontP12ImFontConfigff
libVkLayer_MESA_overlay.so:_Z25ImGetDirQuadrantFromDeltaff
libVkLayer_MESA_overlay.so:_Z27ImTextCountUtf8BytesFromStrPKtS0_
libVkLayer_MESA_overlay.so:_Z27ImTriangleBarycentricCoordsRK6ImVec2S1_S1_S1_RfS2_S2_
libVkLayer_MESA_overlay.so:_Z28ImParseFormatTrimDecorationsPKcPcj
libVkLayer_MESA_overlay.so:_Z28ImTextCountUtf8BytesFromCharPKcS0_
libVkLayer_MESA_overlay.so:_Z31ImFontAtlasBuildPackCustomRectsP11ImFontAtlasPv
libVkLayer_MESA_overlay.so:_Z31ImFontAtlasBuildWithStbTruetypeP11ImFontAtlas
libVkLayer_MESA_overlay.so:_Z34ImFontAtlasBuildMultiplyRectAlpha8PKhPhiiiii
libVkLayer_MESA_overlay.so:_Z39ImFontAtlasBuildMultiplyCalcLookupTablePhf
libVkLayer_MESA_overlay.so:_Z42ImFontAtlasBuildRegisterDefaultCustomRectsP11ImFontAtlas
libVkLayer_MESA_overlay.so:_Z8ImStrdupPKc
libVkLayer_MESA_overlay.so:_Z9ImHashStrPKcjj
libVkLayer_MESA_overlay.so:_Z9ImStrbolWPKtS0_
libVkLayer_MESA_overlay.so:_Z9ImStricmpPKcS0_
libVkLayer_MESA_overlay.so:_Z9ImStristrPKcS0_S0_S0_
libVkLayer_MESA_overlay.so:_Z9ImStrlenWPKt
libVkLayer_MESA_overlay.so:_Z9ImStrncpyPcPKcj
libVkLayer_MESA_overlay.so:_ZN10ImDrawData14ScaleClipRectsERK6ImVec2
libVkLayer_MESA_overlay.so:_ZN10ImDrawData17DeIndexAllBuffersEv
libVkLayer_MESA_overlay.so:_ZN10ImDrawList10AddDrawCmdEv
libVkLayer_MESA_overlay.so:_ZN10ImDrawList10PrimQuadUVERK6ImVec2S2_S2_S2_S2_S2_S2_S2_j
libVkLayer_MESA_overlay.so:_ZN10ImDrawList10PrimRectUVERK6ImVec2S2_S2_S2_j
libVkLayer_MESA_overlay.so:_ZN10ImDrawList11AddCallbackEPFvPKS_PK9ImDrawCmdEPv
libVkLayer_MESA_overlay.so:_ZN10ImDrawList11AddPolylineEPK6ImVec2ijbf
libVkLayer_MESA_overlay.so:_ZN10ImDrawList11AddTriangleERK6ImVec2S2_S2_jf
libVkLayer_MESA_overlay.so:_ZN10ImDrawList11PopClipRectEv
libVkLayer_MESA_overlay.so:_ZN10ImDrawList11PrimReserveEii
libVkLayer_MESA_overlay.so:_ZN10ImDrawList12AddImageQuadEPvRK6ImVec2S3_S3_S3_S3_S3_S3_S3_j
libVkLayer_MESA_overlay.so:_ZN10ImDrawList12PopTextureIDEv
libVkLayer_MESA_overlay.so:_ZN10ImDrawList12PushClipRectE6ImVec2S0_b
libVkLayer_MESA_overlay.so:_ZN10ImDrawList13AddQuadFilledERK6ImVec2S2_S2_S2_j
libVkLayer_MESA_overlay.so:_ZN10ImDrawList13AddRectFilledERK6ImVec2S2_jfi
libVkLayer_MESA_overlay.so:_ZN10ImDrawList13ChannelsMergeEv
libVkLayer_MESA_overlay.so:_ZN10ImDrawList13ChannelsSplitEi
libVkLayer_MESA_overlay.so:_ZN10ImDrawList13PathArcToFastERK6ImVec2fii
libVkLayer_MESA_overlay.so:_ZN10ImDrawList13PushTextureIDEPv
libVkLayer_MESA_overlay.so:_ZN10ImDrawList14AddBezierCurveERK6ImVec2S2_S2_S2_jfi
libVkLayer_MESA_overlay.so:_ZN10ImDrawList14UpdateClipRectEv
libVkLayer_MESA_overlay.so:_ZN10ImDrawList15AddCircleFilledERK6ImVec2fji
libVkLayer_MESA_overlay.so:_ZN10ImDrawList15AddImageRoundedEPvRK6ImVec2S3_S3_S3_jfi
libVkLayer_MESA_overlay.so:_ZN10ImDrawList15ClearFreeMemoryEv
libVkLayer_MESA_overlay.so:_ZN10ImDrawList15UpdateTextureIDEv
libVkLayer_MESA_overlay.so:_ZN10ImDrawList17AddTriangleFilledERK6ImVec2S2_S2_j
libVkLayer_MESA_overlay.so:_ZN10ImDrawList17PathBezierCurveToERK6ImVec2S2_S2_i
libVkLayer_MESA_overlay.so:_ZN10ImDrawList18ChannelsSetCurrentEi
libVkLayer_MESA_overlay.so:_ZN10ImDrawList19AddConvexPolyFilledEPK6ImVec2ij
libVkLayer_MESA_overlay.so:_ZN10ImDrawList22PushClipRectFullScreenEv
libVkLayer_MESA_overlay.so:_ZN10ImDrawList23AddRectFilledMultiColorERK6ImVec2S2_jjjj
libVkLayer_MESA_overlay.so:_ZN10ImDrawList5ClearEv
libVkLayer_MESA_overlay.so:_ZN10ImDrawList7AddLineERK6ImVec2S2_jf
libVkLayer_MESA_overlay.so:_ZN10ImDrawList7AddQuadERK6ImVec2S2_S2_S2_jf
libVkLayer_MESA_overlay.so:_ZN10ImDrawList7AddRectERK6ImVec2S2_jfif
libVkLayer_MESA_overlay.so:_ZN10ImDrawList7AddTextEPK6ImFontfRK6ImVec2jPKcS7_fPK6ImVec4
libVkLayer_MESA_overlay.so:_ZN10ImDrawList7AddTextERK6ImVec2jPKcS4_
libVkLayer_MESA_overlay.so:_ZN10ImDrawList8AddImageEPvRK6ImVec2S3_S3_S3_j
libVkLayer_MESA_overlay.so:_ZN10ImDrawList8PathRectERK6ImVec2S2_fi
libVkLayer_MESA_overlay.so:_ZN10ImDrawList8PrimRectERK6ImVec2S2_j
libVkLayer_MESA_overlay.so:_ZN10ImDrawList9AddCircleERK6ImVec2fjif
libVkLayer_MESA_overlay.so:_ZN10ImDrawList9PathArcToERK6ImVec2fffi
libVkLayer_MESA_overlay.so:_ZN10ImGuiStyle13ScaleAllSizesEf
libVkLayer_MESA_overlay.so:_ZN10ImGuiStyleC1Ev
libVkLayer_MESA_overlay.so:_ZN10ImGuiStyleC2Ev
libVkLayer_MESA_overlay.so:_ZN11ImFontAtlas10ClearFontsEv
libVkLayer_MESA_overlay.so:_ZN11ImFontAtlas12ClearTexDataEv
libVkLayer_MESA_overlay.so:_ZN11ImFontAtlas14AddFontDefaultEPK12ImFontConfig
libVkLayer_MESA_overlay.so:_ZN11ImFontAtlas14ClearInputDataEv
libVkLayer_MESA_overlay.so:_ZN11ImFontAtlas16CalcCustomRectUVEPKNS_10CustomRectEP6ImVec2S4_
libVkLayer_MESA_overlay.so:_ZN11ImFontAtlas18AddFontFromFileTTFEPKcfPK12ImFontConfigPKt
libVkLayer_MESA_overlay.so:_ZN11ImFontAtlas18GetGlyphRangesThaiEv
libVkLayer_MESA_overlay.so:_ZN11ImFontAtlas18GetTexDataAsAlpha8EPPhPiS2_S2_
libVkLayer_MESA_overlay.so:_ZN11ImFontAtlas18GetTexDataAsRGBA32EPPhPiS2_S2_
libVkLayer_MESA_overlay.so:_ZN11ImFontAtlas20AddCustomRectRegularEjii
libVkLayer_MESA_overlay.so:_ZN11ImFontAtlas20AddFontFromMemoryTTFEPvifPK12ImFontConfigPKt
libVkLayer_MESA_overlay.so:_ZN11ImFontAtlas20GetGlyphRangesKoreanEv
libVkLayer_MESA_overlay.so:_ZN11ImFontAtlas21GetGlyphRangesDefaultEv
libVkLayer_MESA_overlay.so:_ZN11ImFontAtlas21GetMouseCursorTexDataEiP6ImVec2S1_S1_S1_
libVkLayer_MESA_overlay.so:_ZN11ImFontAtlas22AddCustomRectFontGlyphEP6ImFonttiifRK6ImVec2
libVkLayer_MESA_overlay.so:_ZN11ImFontAtlas22GetGlyphRangesCyrillicEv
libVkLayer_MESA_overlay.so:_ZN11ImFontAtlas22GetGlyphRangesJapaneseEv
libVkLayer_MESA_overlay.so:_ZN11ImFontAtlas25GetGlyphRangesChineseFullEv
libVkLayer_MESA_overlay.so:_ZN11ImFontAtlas30AddFontFromMemoryCompressedTTFEPKvifPK12ImFontConfigPKt
libVkLayer_MESA_overlay.so:_ZN11ImFontAtlas36AddFontFromMemoryCompressedBase85TTFEPKcfPK12ImFontConfigPKt
libVkLayer_MESA_overlay.so:_ZN11ImFontAtlas37GetGlyphRangesChineseSimplifiedCommonEv
libVkLayer_MESA_overlay.so:_ZN11ImFontAtlas5BuildEv
libVkLayer_MESA_overlay.so:_ZN11ImFontAtlas5ClearEv
libVkLayer_MESA_overlay.so:_ZN11ImFontAtlas7AddFontEPK12ImFontConfig
libVkLayer_MESA_overlay.so:_ZN11ImFontAtlasC1Ev
libVkLayer_MESA_overlay.so:_ZN11ImFontAtlasC2Ev
libVkLayer_MESA_overlay.so:_ZN11ImFontAtlasD1Ev
libVkLayer_MESA_overlay.so:_ZN11ImFontAtlasD2Ev
libVkLayer_MESA_overlay.so:_ZN11ImGuiTabBarC1Ev
libVkLayer_MESA_overlay.so:_ZN11ImGuiTabBarC2Ev
libVkLayer_MESA_overlay.so:_ZN11ImGuiWindow16GetIDNoKeepAliveEPKcS1_
libVkLayer_MESA_overlay.so:_ZN11ImGuiWindow16GetIDNoKeepAliveEPKv
libVkLayer_MESA_overlay.so:_ZN11ImGuiWindow18GetIDFromRectangleERK6ImRect
libVkLayer_MESA_overlay.so:_ZN11ImGuiWindow5GetIDEPKcS1_
libVkLayer_MESA_overlay.so:_ZN11ImGuiWindow5GetIDEPKv
libVkLayer_MESA_overlay.so:_ZN11ImGuiWindowC1EP12ImGuiContextPKc
libVkLayer_MESA_overlay.so:_ZN11ImGuiWindowC2EP12ImGuiContextPKc
libVkLayer_MESA_overlay.so:_ZN11ImGuiWindowD1Ev
libVkLayer_MESA_overlay.so:_ZN11ImGuiWindowD2Ev
libVkLayer_MESA_overlay.so:_ZN12ImFontConfigC1Ev
libVkLayer_MESA_overlay.so:_ZN12ImFontConfigC2Ev
libVkLayer_MESA_overlay.so:_ZN12ImGuiStorage10GetBoolRefEjb
libVkLayer_MESA_overlay.so:_ZN12ImGuiStorage10SetVoidPtrEjPv
libVkLayer_MESA_overlay.so:_ZN12ImGuiStorage11GetFloatRefEjf
libVkLayer_MESA_overlay.so:_ZN12ImGuiStorage13GetVoidPtrRefEjPv
libVkLayer_MESA_overlay.so:_ZN12ImGuiStorage14BuildSortByKeyEv
libVkLayer_MESA_overlay.so:_ZN12ImGuiStorage6SetIntEji
libVkLayer_MESA_overlay.so:_ZN12ImGuiStorage7SetBoolEjb
libVkLayer_MESA_overlay.so:_ZN12ImGuiStorage8SetFloatEjf
libVkLayer_MESA_overlay.so:_ZN12ImGuiStorage9GetIntRefEji
libVkLayer_MESA_overlay.so:_ZN12ImGuiStorage9SetAllIntEi
libVkLayer_MESA_overlay.so:_ZN15ImGuiTextBuffer6appendEPKcS1_
libVkLayer_MESA_overlay.so:_ZN15ImGuiTextBuffer7appendfEPKcz
libVkLayer_MESA_overlay.so:_ZN15ImGuiTextBuffer8appendfvEPKcPc
libVkLayer_MESA_overlay.so:_ZN15ImGuiTextFilter4DrawEPKcf
libVkLayer_MESA_overlay.so:_ZN15ImGuiTextFilter5BuildEv
libVkLayer_MESA_overlay.so:_ZN15ImGuiTextFilterC1EPKc
libVkLayer_MESA_overlay.so:_ZN15ImGuiTextFilterC2EPKc
libVkLayer_MESA_overlay.so:_ZN16ImGuiListClipper3EndEv
libVkLayer_MESA_overlay.so:_ZN16ImGuiListClipper4StepEv
libVkLayer_MESA_overlay.so:_ZN16ImGuiListClipper5BeginEif
libVkLayer_MESA_overlay.so:_ZN16ImGuiMenuColumns11DeclColumnsEfff
libVkLayer_MESA_overlay.so:_ZN16ImGuiMenuColumns14CalcExtraSpaceEf
libVkLayer_MESA_overlay.so:_ZN16ImGuiMenuColumns6UpdateEifb
libVkLayer_MESA_overlay.so:_ZN16ImGuiMenuColumnsC1Ev
libVkLayer_MESA_overlay.so:_ZN16ImGuiMenuColumnsC2Ev
libVkLayer_MESA_overlay.so:_ZN17ImDrawDataBuilder22FlattenIntoSingleLayerEv
libVkLayer_MESA_overlay.so:_ZN19ImGuiInputTextState12OnKeyPressedEi
libVkLayer_MESA_overlay.so:_ZN20ImDrawListSharedDataC1Ev
libVkLayer_MESA_overlay.so:_ZN20ImDrawListSharedDataC2Ev
libVkLayer_MESA_overlay.so:_ZN24ImFontGlyphRangesBuilder11BuildRangesEP8ImVectorItE
libVkLayer_MESA_overlay.so:_ZN24ImFontGlyphRangesBuilder7AddTextEPKcS1_
libVkLayer_MESA_overlay.so:_ZN24ImFontGlyphRangesBuilder9AddRangesEPKt
libVkLayer_MESA_overlay.so:_ZN26ImGuiInputTextCallbackData11DeleteCharsEii
libVkLayer_MESA_overlay.so:_ZN26ImGuiInputTextCallbackData11InsertCharsEiPKcS1_
libVkLayer_MESA_overlay.so:_ZN26ImGuiInputTextCallbackDataC1Ev
libVkLayer_MESA_overlay.so:_ZN26ImGuiInputTextCallbackDataC2Ev
libVkLayer_MESA_overlay.so:_ZN5ImGui10BeginChildEPKcRK6ImVec2bi
libVkLayer_MESA_overlay.so:_ZN5ImGui10BeginChildEjRK6ImVec2bi
libVkLayer_MESA_overlay.so:_ZN5ImGui10BeginComboEPKcS1_i
libVkLayer_MESA_overlay.so:_ZN5ImGui10BeginGroupEv
libVkLayer_MESA_overlay.so:_ZN5ImGui10BeginPopupEPKci
libVkLayer_MESA_overlay.so:_ZN5ImGui10BulletTextEPKcz
libVkLayer_MESA_overlay.so:_ZN5ImGui10ColorEdit3EPKcPfi
libVkLayer_MESA_overlay.so:_ZN5ImGui10ColorEdit4EPKcPfi
libVkLayer_MESA_overlay.so:_ZN5ImGui10DragFloat2EPKcPffffS1_f
libVkLayer_MESA_overlay.so:_ZN5ImGui10DragFloat3EPKcPffffS1_f
libVkLayer_MESA_overlay.so:_ZN5ImGui10DragFloat4EPKcPffffS1_f
libVkLayer_MESA_overlay.so:_ZN5ImGui10DragScalarEPKciPvfPKvS4_S1_f
libVkLayer_MESA_overlay.so:_ZN5ImGui10EndColumnsEv
libVkLayer_MESA_overlay.so:_ZN5ImGui10EndMenuBarEv
libVkLayer_MESA_overlay.so:_ZN5ImGui10EndTabItemEv
libVkLayer_MESA_overlay.so:_ZN5ImGui10EndTooltipEv
libVkLayer_MESA_overlay.so:_ZN5ImGui10GetScrollXEv
libVkLayer_MESA_overlay.so:_ZN5ImGui10GetScrollYEv
libVkLayer_MESA_overlay.so:_ZN5ImGui10GetVersionEv
libVkLayer_MESA_overlay.so:_ZN5ImGui10InitializeEP12ImGuiContext
libVkLayer_MESA_overlay.so:_ZN5ImGui10InputFloatEPKcPfffS1_i
libVkLayer_MESA_overlay.so:_ZN5ImGui10InputFloatEPKcPfffii
libVkLayer_MESA_overlay.so:_ZN5ImGui10LabelTextVEPKcS1_Pc
libVkLayer_MESA_overlay.so:_ZN5ImGui10LogButtonsEv
libVkLayer_MESA_overlay.so:_ZN5ImGui10NextColumnEv
libVkLayer_MESA_overlay.so:_ZN5ImGui10RenderTextE6ImVec2PKcS2_b
libVkLayer_MESA_overlay.so:_ZN5ImGui10SelectableEPKcPbiRK6ImVec2
libVkLayer_MESA_overlay.so:_ZN5ImGui10SelectableEPKcbiRK6ImVec2
libVkLayer_MESA_overlay.so:_ZN5ImGui10SetFocusIDEjP11ImGuiWindow
libVkLayer_MESA_overlay.so:_ZN5ImGui10SetScrollXEf
libVkLayer_MESA_overlay.so:_ZN5ImGui10SetScrollYEf
libVkLayer_MESA_overlay.so:_ZN5ImGui10SetTooltipEPKcz
libVkLayer_MESA_overlay.so:_ZN5ImGui10SliderInt2EPKcPiiiS1_
libVkLayer_MESA_overlay.so:_ZN5ImGui10SliderInt3EPKcPiiiS1_
libVkLayer_MESA_overlay.so:_ZN5ImGui10SliderInt4EPKcPiiiS1_
libVkLayer_MESA_overlay.so:_ZN5ImGui10TreeNodeExEPKci
libVkLayer_MESA_overlay.so:_ZN5ImGui10TreeNodeExEPKciS1_z
libVkLayer_MESA_overlay.so:_ZN5ImGui10TreeNodeExEPKviPKcz
libVkLayer_MESA_overlay.so:_ZN5ImGui10VSliderIntEPKcRK6ImVec2PiiiS1_
libVkLayer_MESA_overlay.so:_ZN5ImGui11ArrowButtonEPKci
libVkLayer_MESA_overlay.so:_ZN5ImGui11BeginTabBarEPKci
libVkLayer_MESA_overlay.so:_ZN5ImGui11BulletTextVEPKcPc
libVkLayer_MESA_overlay.so:_ZN5ImGui11CloseButtonEjRK6ImVec2f
libVkLayer_MESA_overlay.so:_ZN5ImGui11ColorButtonEPKcRK6ImVec4i6ImVec2
libVkLayer_MESA_overlay.so:_ZN5ImGui11DragScalarNEPKciPvifPKvS4_S1_f
libVkLayer_MESA_overlay.so:_ZN5ImGui11FocusWindowEP11ImGuiWindow
libVkLayer_MESA_overlay.so:_ZN5ImGui11GetColorU32ERK6ImVec4
libVkLayer_MESA_overlay.so:_ZN5ImGui11GetColorU32Eif
libVkLayer_MESA_overlay.so:_ZN5ImGui11GetColorU32Ej
libVkLayer_MESA_overlay.so:_ZN5ImGui11GetDrawDataEv
libVkLayer_MESA_overlay.so:_ZN5ImGui11GetFontSizeEv
libVkLayer_MESA_overlay.so:_ZN5ImGui11GetKeyIndexEi
libVkLayer_MESA_overlay.so:_ZN5ImGui11GetMousePosEv
libVkLayer_MESA_overlay.so:_ZN5ImGui11ImageButtonEPvRK6ImVec2S3_S3_iRK6ImVec4S6_
libVkLayer_MESA_overlay.so:_ZN5ImGui11InputDoubleEPKcPdddS1_i
libVkLayer_MESA_overlay.so:_ZN5ImGui11InputFloat2EPKcPfS1_i
libVkLayer_MESA_overlay.so:_ZN5ImGui11InputFloat2EPKcPfii
libVkLayer_MESA_overlay.so:_ZN5ImGui11InputFloat3EPKcPfS1_i
libVkLayer_MESA_overlay.so:_ZN5ImGui11InputFloat3EPKcPfii
libVkLayer_MESA_overlay.so:_ZN5ImGui11InputFloat4EPKcPfS1_i
libVkLayer_MESA_overlay.so:_ZN5ImGui11InputFloat4EPKcPfii
libVkLayer_MESA_overlay.so:_ZN5ImGui11InputScalarEPKciPvPKvS4_S1_i
libVkLayer_MESA_overlay.so:_ZN5ImGui11InputTextExEPKcPciRK6ImVec2iPFiP26ImGuiInputTextCallbackDataEPv
libVkLayer_MESA_overlay.so:_ZN5ImGui11IsClippedExERK6ImRectjb
libVkLayer_MESA_overlay.so:_ZN5ImGui11IsMouseDownEi
libVkLayer_MESA_overlay.so:_ZN5ImGui11IsPopupOpenEPKc
libVkLayer_MESA_overlay.so:_ZN5ImGui11IsPopupOpenEj
libVkLayer_MESA_overlay.so:_ZN5ImGui11KeepAliveIDEj
libVkLayer_MESA_overlay.so:_ZN5ImGui11OpenPopupExEj
libVkLayer_MESA_overlay.so:_ZN5ImGui11PopClipRectEv
libVkLayer_MESA_overlay.so:_ZN5ImGui11PopItemFlagEv
libVkLayer_MESA_overlay.so:_ZN5ImGui11PopStyleVarEi
libVkLayer_MESA_overlay.so:_ZN5ImGui11ProgressBarEfRK6ImVec2PKc
libVkLayer_MESA_overlay.so:_ZN5ImGui11RadioButtonEPKcPii
libVkLayer_MESA_overlay.so:_ZN5ImGui11RadioButtonEPKcb
libVkLayer_MESA_overlay.so:_ZN5ImGui11RenderArrowE6ImVec2if
libVkLayer_MESA_overlay.so:_ZN5ImGui11RenderFrameE6ImVec2S0_jbf
libVkLayer_MESA_overlay.so:_ZN5ImGui11SetActiveIDEjP11ImGuiWindow
libVkLayer_MESA_overlay.so:_ZN5ImGui11SetTooltipVEPKcPc
libVkLayer_MESA_overlay.so:_ZN5ImGui11SliderAngleEPKcPfffS1_
libVkLayer_MESA_overlay.so:_ZN5ImGui11SliderFloatEPKcPfffS1_f
libVkLayer_MESA_overlay.so:_ZN5ImGui11SmallButtonEPKc
libVkLayer_MESA_overlay.so:_ZN5ImGui11TextColoredERK6ImVec4PKcz
libVkLayer_MESA_overlay.so:_ZN5ImGui11TextWrappedEPKcz
libVkLayer_MESA_overlay.so:_ZN5ImGui11TreeNodeExVEPKciS1_Pc
libVkLayer_MESA_overlay.so:_ZN5ImGui11TreeNodeExVEPKviPKcPc
libVkLayer_MESA_overlay.so:_ZN5ImGui12ActivateItemEj
libVkLayer_MESA_overlay.so:_ZN5ImGui12BeginColumnsEPKcii
libVkLayer_MESA_overlay.so:_ZN5ImGui12BeginMenuBarEv
libVkLayer_MESA_overlay.so:_ZN5ImGui12BeginPopupExEji
libVkLayer_MESA_overlay.so:_ZN5ImGui12BeginTabItemEPKcPbi
libVkLayer_MESA_overlay.so:_ZN5ImGui12BeginTooltipEv
libVkLayer_MESA_overlay.so:_ZN5ImGui12CalcItemSizeE6ImVec2ff
libVkLayer_MESA_overlay.so:_ZN5ImGui12CalcTextSizeEPKcS1_bf
libVkLayer_MESA_overlay.so:_ZN5ImGui12ColorPicker3EPKcPfi
libVkLayer_MESA_overlay.so:_ZN5ImGui12ColorPicker4EPKcPfiPKf
libVkLayer_MESA_overlay.so:_ZN5ImGui12ColorTooltipEPKcPKfi
libVkLayer_MESA_overlay.so:_ZN5ImGui12DragBehaviorEjiPvfPKvS2_PKcfi
libVkLayer_MESA_overlay.so:_ZN5ImGui12GetCursorPosEv
libVkLayer_MESA_overlay.so:_ZN5ImGui12GetHoveredIDEv
libVkLayer_MESA_overlay.so:_ZN5ImGui12GetWindowPosEv
libVkLayer_MESA_overlay.so:_ZN5ImGui12InputScalarNEPKciPviPKvS4_S1_i
libVkLayer_MESA_overlay.so:_ZN5ImGui12IsItemActiveEv
libVkLayer_MESA_overlay.so:_ZN5ImGui12IsItemEditedEv
libVkLayer_MESA_overlay.so:_ZN5ImGui12IsKeyPressedEib
libVkLayer_MESA_overlay.so:_ZN5ImGui12PopItemWidthEv
libVkLayer_MESA_overlay.so:_ZN5ImGui12PushClipRectERK6ImVec2S2_b
libVkLayer_MESA_overlay.so:_ZN5ImGui12PushItemFlagEib
libVkLayer_MESA_overlay.so:_ZN5ImGui12PushStyleVarEiRK6ImVec2
libVkLayer_MESA_overlay.so:_ZN5ImGui12PushStyleVarEif
libVkLayer_MESA_overlay.so:_ZN5ImGui12RenderBulletE6ImVec2
libVkLayer_MESA_overlay.so:_ZN5ImGui12SetCursorPosERK6ImVec2
libVkLayer_MESA_overlay.so:_ZN5ImGui12SetHoveredIDEj
libVkLayer_MESA_overlay.so:_ZN5ImGui12SetWindowPosEP11ImGuiWindowRK6ImVec2i
libVkLayer_MESA_overlay.so:_ZN5ImGui12SetWindowPosEPKcRK6ImVec2i
libVkLayer_MESA_overlay.so:_ZN5ImGui12SetWindowPosERK6ImVec2i
libVkLayer_MESA_overlay.so:_ZN5ImGui12SliderFloat2EPKcPfffS1_f
libVkLayer_MESA_overlay.so:_ZN5ImGui12SliderFloat3EPKcPfffS1_f
libVkLayer_MESA_overlay.so:_ZN5ImGui12SliderFloat4EPKcPfffS1_f
libVkLayer_MESA_overlay.so:_ZN5ImGui12SliderScalarEPKciPvPKvS4_S1_f
libVkLayer_MESA_overlay.so:_ZN5ImGui12TextColoredVERK6ImVec4PKcPc
libVkLayer_MESA_overlay.so:_ZN5ImGui12TextDisabledEPKcz
libVkLayer_MESA_overlay.so:_ZN5ImGui12TextWrappedVEPKcPc
libVkLayer_MESA_overlay.so:_ZN5ImGui12VSliderFloatEPKcRK6ImVec2PfffS1_f
libVkLayer_MESA_overlay.so:_ZN5ImGui13ArrowButtonExEPKci6ImVec2i
libVkLayer_MESA_overlay.so:_ZN5ImGui13BeginTabBarExEP11ImGuiTabBarRK6ImRecti
libVkLayer_MESA_overlay.so:_ZN5ImGui13CalcItemWidthEv
libVkLayer_MESA_overlay.so:_ZN5ImGui13CheckboxFlagsEPKcPjj
libVkLayer_MESA_overlay.so:_ZN5ImGui13ClearActiveIDEv
libVkLayer_MESA_overlay.so:_ZN5ImGui13ClearDragDropEv
libVkLayer_MESA_overlay.so:_ZN5ImGui13CreateContextEP11ImFontAtlas
libVkLayer_MESA_overlay.so:_ZN5ImGui13DragIntRange2EPKcPiS2_fiiS1_S1_
libVkLayer_MESA_overlay.so:_ZN5ImGui13EndChildFrameEv
libVkLayer_MESA_overlay.so:_ZN5ImGui13GetCursorPosXEv
libVkLayer_MESA_overlay.so:_ZN5ImGui13GetCursorPosYEv
libVkLayer_MESA_overlay.so:_ZN5ImGui13GetFrameCountEv
libVkLayer_MESA_overlay.so:_ZN5ImGui13GetScrollMaxXEv
libVkLayer_MESA_overlay.so:_ZN5ImGui13GetScrollMaxYEv
libVkLayer_MESA_overlay.so:_ZN5ImGui13GetWindowSizeEv
libVkLayer_MESA_overlay.so:_ZN5ImGui13IsItemClickedEi
libVkLayer_MESA_overlay.so:_ZN5ImGui13IsItemFocusedEv
libVkLayer_MESA_overlay.so:_ZN5ImGui13IsItemHoveredEi
libVkLayer_MESA_overlay.so:_ZN5ImGui13IsItemVisibleEv
libVkLayer_MESA_overlay.so:_ZN5ImGui13IsKeyReleasedEi
libVkLayer_MESA_overlay.so:_ZN5ImGui13IsRectVisibleERK6ImVec2
libVkLayer_MESA_overlay.so:_ZN5ImGui13IsRectVisibleERK6ImVec2S2_
libVkLayer_MESA_overlay.so:_ZN5ImGui13ItemHoverableERK6ImRectj
libVkLayer_MESA_overlay.so:_ZN5ImGui13ListBoxFooterEv
libVkLayer_MESA_overlay.so:_ZN5ImGui13ListBoxHeaderEPKcRK6ImVec2
libVkLayer_MESA_overlay.so:_ZN5ImGui13ListBoxHeaderEPKcii
libVkLayer_MESA_overlay.so:_ZN5ImGui13NavInitWindowEP11ImGuiWindowb
libVkLayer_MESA_overlay.so:_ZN5ImGui13PlotHistogramEPKcPFfPviES2_iiS1_ff6ImVec2
libVkLayer_MESA_overlay.so:_ZN5ImGui13PlotHistogramEPKcPKfiiS1_ff6ImVec2i
libVkLayer_MESA_overlay.so:_ZN5ImGui13PopStyleColorEi
libVkLayer_MESA_overlay.so:_ZN5ImGui13PushItemWidthEf
libVkLayer_MESA_overlay.so:_ZN5ImGui13SetCursorPosXEf
libVkLayer_MESA_overlay.so:_ZN5ImGui13SetCursorPosYEf
libVkLayer_MESA_overlay.so:_ZN5ImGui13SetWindowSizeEP11ImGuiWindowRK6ImVec2i
libVkLayer_MESA_overlay.so:_ZN5ImGui13SetWindowSizeEPKcRK6ImVec2i
libVkLayer_MESA_overlay.so:_ZN5ImGui13SetWindowSizeERK6ImVec2i
libVkLayer_MESA_overlay.so:_ZN5ImGui13SliderScalarNEPKciPviPKvS4_S1_f
libVkLayer_MESA_overlay.so:_ZN5ImGui13TextDisabledVEPKcPc
libVkLayer_MESA_overlay.so:_ZN5ImGui13TreePushRawIDEj
libVkLayer_MESA_overlay.so:_ZN5ImGui13VSliderScalarEPKcRK6ImVec2iPvPKvS7_S1_f
libVkLayer_MESA_overlay.so:_ZN5ImGui14BeginTooltipExEib
libVkLayer_MESA_overlay.so:_ZN5ImGui14ButtonBehaviorERK6ImRectjPbS3_i
libVkLayer_MESA_overlay.so:_ZN5ImGui14CollapseButtonEjRK6ImVec2
libVkLayer_MESA_overlay.so:_ZN5ImGui14DestroyContextEP12ImGuiContext
libVkLayer_MESA_overlay.so:_ZN5ImGui14EndMainMenuBarEv
libVkLayer_MESA_overlay.so:_ZN5ImGui14FindWindowByIDEj
libVkLayer_MESA_overlay.so:_ZN5ImGui14GetColumnIndexEv
libVkLayer_MESA_overlay.so:_ZN5ImGui14GetColumnWidthEi
libVkLayer_MESA_overlay.so:_ZN5ImGui14GetFrameHeightEv
libVkLayer_MESA_overlay.so:_ZN5ImGui14GetItemRectMaxEv
libVkLayer_MESA_overlay.so:_ZN5ImGui14GetItemRectMinEv
libVkLayer_MESA_overlay.so:_ZN5ImGui14GetMouseCursorEv
libVkLayer_MESA_overlay.so:_ZN5ImGui14GetScrollbarIDEi
libVkLayer_MESA_overlay.so:_ZN5ImGui14GetWindowWidthEv
libVkLayer_MESA_overlay.so:_ZN5ImGui14IsAnyMouseDownEv
libVkLayer_MESA_overlay.so:_ZN5ImGui14IsMouseClickedEib
libVkLayer_MESA_overlay.so:_ZN5ImGui14LogToClipboardEi
libVkLayer_MESA_overlay.so:_ZN5ImGui14MarkItemEditedEj
libVkLayer_MESA_overlay.so:_ZN5ImGui14PopTextWrapPosEv
libVkLayer_MESA_overlay.so:_ZN5ImGui14PushStyleColorEiRK6ImVec4
libVkLayer_MESA_overlay.so:_ZN5ImGui14PushStyleColorEij
libVkLayer_MESA_overlay.so:_ZN5ImGui14SetColumnWidthEif
libVkLayer_MESA_overlay.so:_ZN5ImGui14SetCurrentFontEP6ImFont
libVkLayer_MESA_overlay.so:_ZN5ImGui14SetMouseCursorEi
libVkLayer_MESA_overlay.so:_ZN5ImGui14SetScrollHereYEf
libVkLayer_MESA_overlay.so:_ZN5ImGui14SetWindowFocusEPKc
libVkLayer_MESA_overlay.so:_ZN5ImGui14SetWindowFocusEv
libVkLayer_MESA_overlay.so:_ZN5ImGui14SliderBehaviorERK6ImRectjiPvPKvS5_PKcfiPS0_
libVkLayer_MESA_overlay.so:_ZN5ImGui14TabBarCloseTabEP11ImGuiTabBarP12ImGuiTabItem
libVkLayer_MESA_overlay.so:_ZN5ImGui15BeginChildFrameEjRK6ImVec2i
libVkLayer_MESA_overlay.so:_ZN5ImGui15BeginPopupModalEPKcPbi
libVkLayer_MESA_overlay.so:_ZN5ImGui15DragFloatRange2EPKcPfS2_fffS1_S1_f
libVkLayer_MESA_overlay.so:_ZN5ImGui15GetColumnOffsetEi
libVkLayer_MESA_overlay.so:_ZN5ImGui15GetColumnsCountEv
libVkLayer_MESA_overlay.so:_ZN5ImGui15GetItemRectSizeEv
libVkLayer_MESA_overlay.so:_ZN5ImGui15GetStateStorageEv
libVkLayer_MESA_overlay.so:_ZN5ImGui15GetWindowHeightEv
libVkLayer_MESA_overlay.so:_ZN5ImGui15InvisibleButtonEPKcRK6ImVec2
libVkLayer_MESA_overlay.so:_ZN5ImGui15IsAnyItemActiveEv
libVkLayer_MESA_overlay.so:_ZN5ImGui15IsItemActivatedEv
libVkLayer_MESA_overlay.so:_ZN5ImGui15IsMouseDraggingEif
libVkLayer_MESA_overlay.so:_ZN5ImGui15IsMousePosValidEPK6ImVec2
libVkLayer_MESA_overlay.so:_ZN5ImGui15IsMouseReleasedEi
libVkLayer_MESA_overlay.so:_ZN5ImGui15IsWindowChildOfEP11ImGuiWindowS1_
libVkLayer_MESA_overlay.so:_ZN5ImGui15IsWindowFocusedEi
libVkLayer_MESA_overlay.so:_ZN5ImGui15IsWindowHoveredEi
libVkLayer_MESA_overlay.so:_ZN5ImGui15LogRenderedTextEPK6ImVec2PKcS4_
libVkLayer_MESA_overlay.so:_ZN5ImGui15PopButtonRepeatEv
libVkLayer_MESA_overlay.so:_ZN5ImGui15PushTextWrapPosEf
libVkLayer_MESA_overlay.so:_ZN5ImGui15RenderCheckMarkE6ImVec2jf
libVkLayer_MESA_overlay.so:_ZN5ImGui15SetColumnOffsetEif
libVkLayer_MESA_overlay.so:_ZN5ImGui15SetStateStorageEP12ImGuiStorage
libVkLayer_MESA_overlay.so:_ZN5ImGui15StyleColorsDarkEP10ImGuiStyle
libVkLayer_MESA_overlay.so:_ZN5ImGui15TabBarRemoveTabEP11ImGuiTabBarj
libVkLayer_MESA_overlay.so:_ZN5ImGui15TabItemCalcSizeEPKcb
libVkLayer_MESA_overlay.so:_ZN5ImGui15TextUnformattedEPKcS1_
libVkLayer_MESA_overlay.so:_ZN5ImGui16BeginMainMenuBarEv
libVkLayer_MESA_overlay.so:_ZN5ImGui16CalcListClippingEifPiS0_
libVkLayer_MESA_overlay.so:_ZN5ImGui16CollapsingHeaderEPKcPbi
libVkLayer_MESA_overlay.so:_ZN5ImGui16CollapsingHeaderEPKci
libVkLayer_MESA_overlay.so:_ZN5ImGui16FindWindowByNameEPKc
libVkLayer_MESA_overlay.so:_ZN5ImGui16GetClipboardTextEv
libVkLayer_MESA_overlay.so:_ZN5ImGui16IsAnyItemFocusedEv
libVkLayer_MESA_overlay.so:_ZN5ImGui16IsAnyItemHoveredEv
libVkLayer_MESA_overlay.so:_ZN5ImGui16PushButtonRepeatEb
libVkLayer_MESA_overlay.so:_ZN5ImGui16SetClipboardTextEPKc
libVkLayer_MESA_overlay.so:_ZN5ImGui16SetNextWindowPosERK6ImVec2iS2_
libVkLayer_MESA_overlay.so:_ZN5ImGui16SetTabItemClosedEPKc
libVkLayer_MESA_overlay.so:_ZN5ImGui16SetWindowScrollXEP11ImGuiWindowf
libVkLayer_MESA_overlay.so:_ZN5ImGui16SetWindowScrollYEP11ImGuiWindowf
libVkLayer_MESA_overlay.so:_ZN5ImGui16SplitterBehaviorERK6ImRectj9ImGuiAxisPfS4_ffff
libVkLayer_MESA_overlay.so:_ZN5ImGui16StyleColorsLightEP10ImGuiStyle
libVkLayer_MESA_overlay.so:_ZN5ImGui16TreeNodeBehaviorEjiPKcS1_
libVkLayer_MESA_overlay.so:_ZN5ImGui17CloseCurrentPopupEv
libVkLayer_MESA_overlay.so:_ZN5ImGui17ClosePopupToLevelEib
libVkLayer_MESA_overlay.so:_ZN5ImGui17EndDragDropSourceEv
libVkLayer_MESA_overlay.so:_ZN5ImGui17EndDragDropTargetEv
libVkLayer_MESA_overlay.so:_ZN5ImGui17GetCurrentContextEv
libVkLayer_MESA_overlay.so:_ZN5ImGui17GetCursorStartPosEv
libVkLayer_MESA_overlay.so:_ZN5ImGui17GetMouseDragDeltaEif
libVkLayer_MESA_overlay.so:_ZN5ImGui17GetNavInputAmountEi18ImGuiInputReadMode
libVkLayer_MESA_overlay.so:_ZN5ImGui17GetStyleColorNameEi
libVkLayer_MESA_overlay.so:_ZN5ImGui17GetStyleColorVec4Ei
libVkLayer_MESA_overlay.so:_ZN5ImGui17GetTextLineHeightEv
libVkLayer_MESA_overlay.so:_ZN5ImGui17GetWindowDrawListEv
libVkLayer_MESA_overlay.so:_ZN5ImGui17IsItemDeactivatedEv
libVkLayer_MESA_overlay.so:_ZN5ImGui17IsWindowAppearingEv
libVkLayer_MESA_overlay.so:_ZN5ImGui17IsWindowCollapsedEv
libVkLayer_MESA_overlay.so:_ZN5ImGui17RenderFrameBorderE6ImVec2S0_f
libVkLayer_MESA_overlay.so:_ZN5ImGui17RenderMouseCursorEP10ImDrawList6ImVec2fi
libVkLayer_MESA_overlay.so:_ZN5ImGui17RenderTextClippedERK6ImVec2S2_PKcS4_PS1_S2_PK6ImRect
libVkLayer_MESA_overlay.so:_ZN5ImGui17RenderTextWrappedE6ImVec2PKcS2_f
libVkLayer_MESA_overlay.so:_ZN5ImGui17SetCurrentContextEP12ImGuiContext
libVkLayer_MESA_overlay.so:_ZN5ImGui17SetNextWindowSizeERK6ImVec2i
libVkLayer_MESA_overlay.so:_ZN5ImGui17SetScrollFromPosYEff
libVkLayer_MESA_overlay.so:_ZN5ImGui17ShowMetricsWindowEPb
libVkLayer_MESA_overlay.so:_ZN5ImGui17TabBarFindTabByIDEP11ImGuiTabBarj
libVkLayer_MESA_overlay.so:_ZN5ImGui17TabItemBackgroundEP10ImDrawListRK6ImRectij
libVkLayer_MESA_overlay.so:_ZN5ImGui17VerticalSeparatorEv
libVkLayer_MESA_overlay.so:_ZN5ImGui18FindWindowSettingsEj
libVkLayer_MESA_overlay.so:_ZN5ImGui18GetCursorScreenPosEv
libVkLayer_MESA_overlay.so:_ZN5ImGui18GetDragDropPayloadEv
libVkLayer_MESA_overlay.so:_ZN5ImGui18GetOverlayDrawListEv
libVkLayer_MESA_overlay.so:_ZN5ImGui18InputTextMultilineEPKcPcjRK6ImVec2iPFiP26ImGuiInputTextCallbackDataEPv
libVkLayer_MESA_overlay.so:_ZN5ImGui18PushColumnClipRectEi
libVkLayer_MESA_overlay.so:_ZN5ImGui18RenderNavHighlightERK6ImRectji
libVkLayer_MESA_overlay.so:_ZN5ImGui18SetCursorScreenPosERK6ImVec2
libVkLayer_MESA_overlay.so:_ZN5ImGui18SetDragDropPayloadEPKcPKvji
libVkLayer_MESA_overlay.so:_ZN5ImGui18SetNextWindowFocusEv
libVkLayer_MESA_overlay.so:_ZN5ImGui18SetWindowCollapsedEP11ImGuiWindowbi
libVkLayer_MESA_overlay.so:_ZN5ImGui18SetWindowCollapsedEPKcbi
libVkLayer_MESA_overlay.so:_ZN5ImGui18SetWindowCollapsedEbi
libVkLayer_MESA_overlay.so:_ZN5ImGui18SetWindowFontScaleEf
libVkLayer_MESA_overlay.so:_ZN5ImGui18ShadeVertsLinearUVEP10ImDrawListiiRK6ImVec2S4_S4_S4_b
libVkLayer_MESA_overlay.so:_ZN5ImGui18StyleColorsClassicEP10ImGuiStyle
libVkLayer_MESA_overlay.so:_ZN5ImGui19BeginDragDropSourceEi
libVkLayer_MESA_overlay.so:_ZN5ImGui19BeginDragDropTargetEv
libVkLayer_MESA_overlay.so:_ZN5ImGui19CalcWrapWidthForPosERK6ImVec2f
libVkLayer_MESA_overlay.so:_ZN5ImGui19CaptureMouseFromAppEb
libVkLayer_MESA_overlay.so:_ZN5ImGui19FindRenderedTextEndEPKcS1_
libVkLayer_MESA_overlay.so:_ZN5ImGui19FindSettingsHandlerEPKc
libVkLayer_MESA_overlay.so:_ZN5ImGui19GetContentRegionMaxEv
libVkLayer_MESA_overlay.so:_ZN5ImGui19GetKeyPressedAmountEiff
libVkLayer_MESA_overlay.so:_ZN5ImGui19GetNavInputAmount2dEi18ImGuiInputReadModeff
libVkLayer_MESA_overlay.so:_ZN5ImGui19GetWindowScrollMaxXEP11ImGuiWindow
libVkLayer_MESA_overlay.so:_ZN5ImGui19GetWindowScrollMaxYEP11ImGuiWindow
libVkLayer_MESA_overlay.so:_ZN5ImGui19IsMouseHoveringRectERK6ImVec2S2_b
libVkLayer_MESA_overlay.so:_ZN5ImGui19RenderPixelEllipsisEP10ImDrawList6ImVec2ij
libVkLayer_MESA_overlay.so:_ZN5ImGui19RenderTextClippedExEP10ImDrawListRK6ImVec2S4_PKcS6_PS3_S4_PK6ImRect
libVkLayer_MESA_overlay.so:_ZN5ImGui19ResetMouseDragDeltaEi
libVkLayer_MESA_overlay.so:_ZN5ImGui19SetColorEditOptionsEi
libVkLayer_MESA_overlay.so:_ZN5ImGui19SetItemAllowOverlapEv
libVkLayer_MESA_overlay.so:_ZN5ImGui19SetItemDefaultFocusEv
libVkLayer_MESA_overlay.so:_ZN5ImGui19SetNavIDWithRectRelEjiRK6ImRect
libVkLayer_MESA_overlay.so:_ZN5ImGui19SetNextTreeNodeOpenEbi
libVkLayer_MESA_overlay.so:_ZN5ImGui20ColorConvertHSVtoRGBEfffRfS0_S0_
libVkLayer_MESA_overlay.so:_ZN5ImGui20ColorConvertRGBtoHSVEfffRfS0_S0_
libVkLayer_MESA_overlay.so:_ZN5ImGui20IsMouseDoubleClickedEi
libVkLayer_MESA_overlay.so:_ZN5ImGui20IsWindowNavFocusableEP11ImGuiWindow
libVkLayer_MESA_overlay.so:_ZN5ImGui20MarkIniSettingsDirtyEP11ImGuiWindow
libVkLayer_MESA_overlay.so:_ZN5ImGui20MarkIniSettingsDirtyEv
libVkLayer_MESA_overlay.so:_ZN5ImGui20NavMoveRequestCancelEv
libVkLayer_MESA_overlay.so:_ZN5ImGui20OpenPopupOnItemClickEPKci
libVkLayer_MESA_overlay.so:_ZN5ImGui20PushMultiItemsWidthsEif
libVkLayer_MESA_overlay.so:_ZN5ImGui20SetKeyboardFocusHereEi
libVkLayer_MESA_overlay.so:_ZN5ImGui20SetNextWindowBgAlphaEf
libVkLayer_MESA_overlay.so:_ZN5ImGui21AcceptDragDropPayloadEPKci
libVkLayer_MESA_overlay.so:_ZN5ImGui21BeginPopupContextItemEPKci
libVkLayer_MESA_overlay.so:_ZN5ImGui21BeginPopupContextVoidEPKci
libVkLayer_MESA_overlay.so:_ZN5ImGui21ClosePopupsOverWindowEP11ImGuiWindow
libVkLayer_MESA_overlay.so:_ZN5ImGui21ColorEditOptionsPopupEPKfi
libVkLayer_MESA_overlay.so:_ZN5ImGui21FocusableItemRegisterEP11ImGuiWindowjb
libVkLayer_MESA_overlay.so:_ZN5ImGui21GetContentRegionAvailEv
libVkLayer_MESA_overlay.so:_ZN5ImGui21GetDrawListSharedDataEv
libVkLayer_MESA_overlay.so:_ZN5ImGui21NavMoveRequestForwardEiiRK6ImRecti
libVkLayer_MESA_overlay.so:_ZN5ImGui21PopAllowKeyboardFocusEv
libVkLayer_MESA_overlay.so:_ZN5ImGui21RenderArrowPointingAtEP10ImDrawList6ImVec2S2_ij
libVkLayer_MESA_overlay.so:_ZN5ImGui21SaveIniSettingsToDiskEPKc
libVkLayer_MESA_overlay.so:_ZN5ImGui21SetAllocatorFunctionsEPFPvjS0_EPFvS0_S0_ES0_
libVkLayer_MESA_overlay.so:_ZN5ImGui21TreeAdvanceToLabelPosEv
libVkLayer_MESA_overlay.so:_ZN5ImGui22CalcWindowExpectedSizeEP11ImGuiWindow
libVkLayer_MESA_overlay.so:_ZN5ImGui22CaptureKeyboardFromAppEb
libVkLayer_MESA_overlay.so:_ZN5ImGui22GetFontTexUvWhitePixelEv
libVkLayer_MESA_overlay.so:_ZN5ImGui22GetFrontMostPopupModalEv
libVkLayer_MESA_overlay.so:_ZN5ImGui22PushAllowKeyboardFocusEb
libVkLayer_MESA_overlay.so:_ZN5ImGui22RenderRectFilledRangeHEP10ImDrawListRK6ImRectjfff
libVkLayer_MESA_overlay.so:_ZN5ImGui22SetNextWindowCollapsedEbi
libVkLayer_MESA_overlay.so:_ZN5ImGui22StartMouseMovingWindowEP11ImGuiWindow
libVkLayer_MESA_overlay.so:_ZN5ImGui22TreeNodeBehaviorIsOpenEji
libVkLayer_MESA_overlay.so:_ZN5ImGui23AlignTextToFramePaddingEv
libVkLayer_MESA_overlay.so:_ZN5ImGui23BeginPopupContextWindowEPKcib
libVkLayer_MESA_overlay.so:_ZN5ImGui23BringWindowToFocusFrontEP11ImGuiWindow
libVkLayer_MESA_overlay.so:_ZN5ImGui23ColorConvertFloat4ToU32ERK6ImVec4
libVkLayer_MESA_overlay.so:_ZN5ImGui23ColorConvertU32ToFloat4Ej
libVkLayer_MESA_overlay.so:_ZN5ImGui23ColorPickerOptionsPopupEPKfi
libVkLayer_MESA_overlay.so:_ZN5ImGui23CreateNewWindowSettingsEPKc
libVkLayer_MESA_overlay.so:_ZN5ImGui23FocusableItemUnregisterEP11ImGuiWindow
libVkLayer_MESA_overlay.so:_ZN5ImGui23LoadIniSettingsFromDiskEPKc
libVkLayer_MESA_overlay.so:_ZN5ImGui23SaveIniSettingsToMemoryEPj
libVkLayer_MESA_overlay.so:_ZN5ImGui24BringWindowToDisplayBackEP11ImGuiWindow
libVkLayer_MESA_overlay.so:_ZN5ImGui24SetNextWindowContentSizeERK6ImVec2
libVkLayer_MESA_overlay.so:_ZN5ImGui25BeginDragDropTargetCustomERK6ImRectj
libVkLayer_MESA_overlay.so:_ZN5ImGui25BringWindowToDisplayFrontEP11ImGuiWindow
libVkLayer_MESA_overlay.so:_ZN5ImGui25FindBestWindowPosForPopupEP11ImGuiWindow
libVkLayer_MESA_overlay.so:_ZN5ImGui25GetFrameHeightWithSpacingEv
libVkLayer_MESA_overlay.so:_ZN5ImGui25GetTreeNodeToLabelSpacingEv
libVkLayer_MESA_overlay.so:_ZN5ImGui25GetWindowContentRegionMaxEv
libVkLayer_MESA_overlay.so:_ZN5ImGui25GetWindowContentRegionMinEv
libVkLayer_MESA_overlay.so:_ZN5ImGui25LoadIniSettingsFromMemoryEPKcj
libVkLayer_MESA_overlay.so:_ZN5ImGui25NavMoveRequestTryWrappingEP11ImGuiWindowi
libVkLayer_MESA_overlay.so:_ZN5ImGui25TabBarQueueChangeTabOrderEP11ImGuiTabBarPK12ImGuiTabItemi
libVkLayer_MESA_overlay.so:_ZN5ImGui26FindOrCreateWindowSettingsEPKc
libVkLayer_MESA_overlay.so:_ZN5ImGui26GetContentRegionAvailWidthEv
libVkLayer_MESA_overlay.so:_ZN5ImGui26GetWindowAllowedExtentRectEP11ImGuiWindow
libVkLayer_MESA_overlay.so:_ZN5ImGui26IsItemDeactivatedAfterEditEv
libVkLayer_MESA_overlay.so:_ZN5ImGui26TabItemLabelAndCloseButtonEP10ImDrawListRK6ImRecti6ImVec2PKcjj
libVkLayer_MESA_overlay.so:_ZN5ImGui27FindBestWindowPosForPopupExERK6ImVec2S2_PiRK6ImRectS6_24ImGuiPopupPositionPolicy
libVkLayer_MESA_overlay.so:_ZN5ImGui27GetWindowContentRegionWidthEv
libVkLayer_MESA_overlay.so:_ZN5ImGui28GetTextLineHeightWithSpacingEv
libVkLayer_MESA_overlay.so:_ZN5ImGui28NavMoveRequestButNoResultYetEv
libVkLayer_MESA_overlay.so:_ZN5ImGui28SetNextWindowSizeConstraintsERK6ImVec2S2_PFvP21ImGuiSizeCallbackDataEPv
libVkLayer_MESA_overlay.so:_ZN5ImGui30DebugCheckVersionAndDataLayoutEPKcjjjjj
libVkLayer_MESA_overlay.so:_ZN5ImGui30FocusPreviousWindowIgnoringOneEP11ImGuiWindow
libVkLayer_MESA_overlay.so:_ZN5ImGui30InputScalarAsWidgetReplacementERK6ImRectjPKciPvS4_
libVkLayer_MESA_overlay.so:_ZN5ImGui30IsDragDropPayloadBeingAcceptedEv
libVkLayer_MESA_overlay.so:_ZN5ImGui30UpdateWindowParentAndRootLinksEP11ImGuiWindowiS1_
libVkLayer_MESA_overlay.so:_ZN5ImGui31UpdateMouseMovingWindowEndFrameEv
libVkLayer_MESA_overlay.so:_ZN5ImGui31UpdateMouseMovingWindowNewFrameEv
libVkLayer_MESA_overlay.so:_ZN5ImGui32CalcTypematicPressedRepeatAmountEffff
libVkLayer_MESA_overlay.so:_ZN5ImGui32GetMousePosOnOpeningCurrentPopupEv
libVkLayer_MESA_overlay.so:_ZN5ImGui34UpdateHoveredWindowAndCaptureFlagsEv
libVkLayer_MESA_overlay.so:_ZN5ImGui36RenderColorRectWithAlphaCheckerboardE6ImVec2S0_jfS0_fi
libVkLayer_MESA_overlay.so:_ZN5ImGui38ShadeVertsLinearColorGradientKeepAlphaEP10ImDrawListii6ImVec2S2_jj
libVkLayer_MESA_overlay.so:_ZN5ImGui3EndEv
libVkLayer_MESA_overlay.so:_ZN5ImGui4TextEPKcz
libVkLayer_MESA_overlay.so:_ZN5ImGui5BeginEPKcPbRK6ImVec2fi
libVkLayer_MESA_overlay.so:_ZN5ImGui5BeginEPKcPbi
libVkLayer_MESA_overlay.so:_ZN5ImGui5ComboEPKcPiPFbPviPS1_ES3_ii
libVkLayer_MESA_overlay.so:_ZN5ImGui5ComboEPKcPiPKS1_ii
libVkLayer_MESA_overlay.so:_ZN5ImGui5ComboEPKcPiS1_i
libVkLayer_MESA_overlay.so:_ZN5ImGui5DummyERK6ImVec2
libVkLayer_MESA_overlay.so:_ZN5ImGui5GetIDEPKc
libVkLayer_MESA_overlay.so:_ZN5ImGui5GetIDEPKcS1_
libVkLayer_MESA_overlay.so:_ZN5ImGui5GetIDEPKv
libVkLayer_MESA_overlay.so:_ZN5ImGui5GetIOEv
libVkLayer_MESA_overlay.so:_ZN5ImGui5ImageEPvRK6ImVec2S3_S3_RK6ImVec4S6_
libVkLayer_MESA_overlay.so:_ZN5ImGui5PopIDEv
libVkLayer_MESA_overlay.so:_ZN5ImGui5TextVEPKcPc
libVkLayer_MESA_overlay.so:_ZN5ImGui5ValueEPKcb
libVkLayer_MESA_overlay.so:_ZN5ImGui5ValueEPKcfS1_
libVkLayer_MESA_overlay.so:_ZN5ImGui5ValueEPKci
libVkLayer_MESA_overlay.so:_ZN5ImGui5ValueEPKcj
libVkLayer_MESA_overlay.so:_ZN5ImGui6BulletEv
libVkLayer_MESA_overlay.so:_ZN5ImGui6ButtonEPKcRK6ImVec2
libVkLayer_MESA_overlay.so:_ZN5ImGui6IndentEf
libVkLayer_MESA_overlay.so:_ZN5ImGui6PlotExE13ImGuiPlotTypePKcPFfPviES3_iiS2_ff6ImVec2
libVkLayer_MESA_overlay.so:_ZN5ImGui6PushIDEPKc
libVkLayer_MESA_overlay.so:_ZN5ImGui6PushIDEPKcS1_
libVkLayer_MESA_overlay.so:_ZN5ImGui6PushIDEPKv
libVkLayer_MESA_overlay.so:_ZN5ImGui6PushIDEi
libVkLayer_MESA_overlay.so:_ZN5ImGui6RenderEv
libVkLayer_MESA_overlay.so:_ZN5ImGui7ColumnsEiPKcb
libVkLayer_MESA_overlay.so:_ZN5ImGui7DragIntEPKcPifiiS1_
libVkLayer_MESA_overlay.so:_ZN5ImGui7EndMenuEv
libVkLayer_MESA_overlay.so:_ZN5ImGui7GetFontEv
libVkLayer_MESA_overlay.so:_ZN5ImGui7GetTimeEv
libVkLayer_MESA_overlay.so:_ZN5ImGui7ItemAddERK6ImRectjPS1_
libVkLayer_MESA_overlay.so:_ZN5ImGui7ListBoxEPKcPiPFbPviPS1_ES3_ii
libVkLayer_MESA_overlay.so:_ZN5ImGui7ListBoxEPKcPiPKS1_ii
libVkLayer_MESA_overlay.so:_ZN5ImGui7LogTextEPKcz
libVkLayer_MESA_overlay.so:_ZN5ImGui7MemFreeEPv
libVkLayer_MESA_overlay.so:_ZN5ImGui7NewLineEv
libVkLayer_MESA_overlay.so:_ZN5ImGui7PopFontEv
libVkLayer_MESA_overlay.so:_ZN5ImGui7SpacingEv
libVkLayer_MESA_overlay.so:_ZN5ImGui7TreePopEv
libVkLayer_MESA_overlay.so:_ZN5ImGui8ButtonExEPKcRK6ImVec2i
libVkLayer_MESA_overlay.so:_ZN5ImGui8CheckboxEPKcPb
libVkLayer_MESA_overlay.so:_ZN5ImGui8DragInt2EPKcPifiiS1_
libVkLayer_MESA_overlay.so:_ZN5ImGui8DragInt3EPKcPifiiS1_
libVkLayer_MESA_overlay.so:_ZN5ImGui8DragInt4EPKcPifiiS1_
libVkLayer_MESA_overlay.so:_ZN5ImGui8EndChildEv
libVkLayer_MESA_overlay.so:_ZN5ImGui8EndComboEv
libVkLayer_MESA_overlay.so:_ZN5ImGui8EndFrameEv
libVkLayer_MESA_overlay.so:_ZN5ImGui8EndGroupEv
libVkLayer_MESA_overlay.so:_ZN5ImGui8EndPopupEv
libVkLayer_MESA_overlay.so:_ZN5ImGui8GetStyleEv
libVkLayer_MESA_overlay.so:_ZN5ImGui8InputIntEPKcPiiii
libVkLayer_MESA_overlay.so:_ZN5ImGui8ItemSizeERK6ImRectf
libVkLayer_MESA_overlay.so:_ZN5ImGui8ItemSizeERK6ImVec2f
libVkLayer_MESA_overlay.so:_ZN5ImGui8LogToTTYEi
libVkLayer_MESA_overlay.so:_ZN5ImGui8MemAllocEj
libVkLayer_MESA_overlay.so:_ZN5ImGui8MenuItemEPKcS1_Pbb
libVkLayer_MESA_overlay.so:_ZN5ImGui8MenuItemEPKcS1_bb
libVkLayer_MESA_overlay.so:_ZN5ImGui8NewFrameEv
libVkLayer_MESA_overlay.so:_ZN5ImGui8PushFontEP6ImFont
libVkLayer_MESA_overlay.so:_ZN5ImGui8SameLineEff
libVkLayer_MESA_overlay.so:_ZN5ImGui8SetNavIDEji
libVkLayer_MESA_overlay.so:_ZN5ImGui8ShutdownEP12ImGuiContext
libVkLayer_MESA_overlay.so:_ZN5ImGui8TreeNodeEPKc
libVkLayer_MESA_overlay.so:_ZN5ImGui8TreeNodeEPKcS1_z
libVkLayer_MESA_overlay.so:_ZN5ImGui8TreeNodeEPKvPKcz
libVkLayer_MESA_overlay.so:_ZN5ImGui8TreePushEPKc
libVkLayer_MESA_overlay.so:_ZN5ImGui8TreePushEPKv
libVkLayer_MESA_overlay.so:_ZN5ImGui8UnindentEf
libVkLayer_MESA_overlay.so:_ZN5ImGui9BeginMenuEPKcb
libVkLayer_MESA_overlay.so:_ZN5ImGui9DragFloatEPKcPffffS1_f
libVkLayer_MESA_overlay.so:_ZN5ImGui9EndTabBarEv
libVkLayer_MESA_overlay.so:_ZN5ImGui9InputInt2EPKcPii
libVkLayer_MESA_overlay.so:_ZN5ImGui9InputInt3EPKcPii
libVkLayer_MESA_overlay.so:_ZN5ImGui9InputInt4EPKcPii
libVkLayer_MESA_overlay.so:_ZN5ImGui9InputTextEPKcPcjiPFiP26ImGuiInputTextCallbackDataEPv
libVkLayer_MESA_overlay.so:_ZN5ImGui9IsKeyDownEi
libVkLayer_MESA_overlay.so:_ZN5ImGui9LabelTextEPKcS1_z
libVkLayer_MESA_overlay.so:_ZN5ImGui9LogFinishEv
libVkLayer_MESA_overlay.so:_ZN5ImGui9LogToFileEiPKc
libVkLayer_MESA_overlay.so:_ZN5ImGui9OpenPopupEPKc
libVkLayer_MESA_overlay.so:_ZN5ImGui9PlotLinesEPKcPFfPviES2_iiS1_ff6ImVec2
libVkLayer_MESA_overlay.so:_ZN5ImGui9PlotLinesEPKcPKfiiS1_ff6ImVec2i
libVkLayer_MESA_overlay.so:_ZN5ImGui9ScrollbarEi
libVkLayer_MESA_overlay.so:_ZN5ImGui9SeparatorEv
libVkLayer_MESA_overlay.so:_ZN5ImGui9SliderIntEPKcPiiiS1_
libVkLayer_MESA_overlay.so:_ZN5ImGui9TabItemExEP11ImGuiTabBarPKcPbi
libVkLayer_MESA_overlay.so:_ZN5ImGui9TreeNodeVEPKcS1_Pc
libVkLayer_MESA_overlay.so:_ZN5ImGui9TreeNodeVEPKvPKcPc
libVkLayer_MESA_overlay.so:_ZN6ImFont12AddRemapCharEttb
libVkLayer_MESA_overlay.so:_ZN6ImFont15ClearOutputDataEv
libVkLayer_MESA_overlay.so:_ZN6ImFont15SetFallbackCharEt
libVkLayer_MESA_overlay.so:_ZN6ImFont16BuildLookupTableEv
libVkLayer_MESA_overlay.so:_ZN6ImFont8AddGlyphEtfffffffff
libVkLayer_MESA_overlay.so:_ZN6ImFont9GrowIndexEi
libVkLayer_MESA_overlay.so:_ZN6ImFontC1Ev
libVkLayer_MESA_overlay.so:_ZN6ImFontC2Ev
libVkLayer_MESA_overlay.so:_ZN6ImFontD1Ev
libVkLayer_MESA_overlay.so:_ZN6ImFontD2Ev
libVkLayer_MESA_overlay.so:_ZN7ImGuiIO17AddInputCharacterEt
libVkLayer_MESA_overlay.so:_ZN7ImGuiIO20ClearInputCharactersEv
libVkLayer_MESA_overlay.so:_ZN7ImGuiIO22AddInputCharactersUTF8EPKc
libVkLayer_MESA_overlay.so:_ZN7ImGuiIOC1Ev
libVkLayer_MESA_overlay.so:_ZN7ImGuiIOC2Ev
libVkLayer_MESA_overlay.so:_ZNK10ImDrawList11CloneOutputEv
libVkLayer_MESA_overlay.so:_ZNK12ImGuiStorage10GetVoidPtrEj
libVkLayer_MESA_overlay.so:_ZNK12ImGuiStorage6GetIntEji
libVkLayer_MESA_overlay.so:_ZNK12ImGuiStorage7GetBoolEjb
libVkLayer_MESA_overlay.so:_ZNK12ImGuiStorage8GetFloatEjf
libVkLayer_MESA_overlay.so:_ZNK15ImGuiTextFilter10PassFilterEPKcS1_
libVkLayer_MESA_overlay.so:_ZNK15ImGuiTextFilter9TextRange5splitEcP8ImVectorIS0_E
libVkLayer_MESA_overlay.so:_ZNK6ImFont10RenderCharEP10ImDrawListf6ImVec2jt
libVkLayer_MESA_overlay.so:_ZNK6ImFont10RenderTextEP10ImDrawListf6ImVec2jRK6ImVec4PKcS7_fb
libVkLayer_MESA_overlay.so:_ZNK6ImFont13CalcTextSizeAEfffPKcS1_PS1_
libVkLayer_MESA_overlay.so:_ZNK6ImFont19FindGlyphNoFallbackEt
libVkLayer_MESA_overlay.so:_ZNK6ImFont21CalcWordWrapPositionAEfPKcS1_f
libVkLayer_MESA_overlay.so:_ZNK6ImFont9FindGlyphEt
libVkLayer_MESA_overlay.so:vkGetDeviceProcAddr
libVkLayer_MESA_overlay.so:vkGetInstanceProcAddr
libgallium-25.0.0-devel.so:__vaDriverInit_1_22
libgallium-25.0.0-devel.so:_mesa_glapi_get_context
libgallium-25.0.0-devel.so:_mesa_glapi_get_dispatch
libgallium-25.0.0-devel.so:_mesa_glapi_get_dispatch_table_size
libgallium-25.0.0-devel.so:_mesa_glapi_get_proc_address
libgallium-25.0.0-devel.so:_mesa_glapi_get_proc_offset
libgallium-25.0.0-devel.so:_mesa_glapi_set_context
libgallium-25.0.0-devel.so:_mesa_glapi_set_dispatch
libgallium-25.0.0-devel.so:ac_init_shared_llvm_once
libgallium-25.0.0-devel.so:amdgpu_winsys_create
libgallium-25.0.0-devel.so:ddebug_screen_create
libgallium-25.0.0-devel.so:dri2GalliumConfigQueryb
libgallium-25.0.0-devel.so:dri2GalliumConfigQueryf
libgallium-25.0.0-devel.so:dri2GalliumConfigQueryi
libgallium-25.0.0-devel.so:dri2GalliumConfigQuerys
libgallium-25.0.0-devel.so:dri2_blit_image
libgallium-25.0.0-devel.so:dri2_create_from_texture
libgallium-25.0.0-devel.so:dri2_destroy_image
libgallium-25.0.0-devel.so:dri2_dup_image
libgallium-25.0.0-devel.so:dri2_from_dma_bufs
libgallium-25.0.0-devel.so:dri2_from_names
libgallium-25.0.0-devel.so:dri2_from_planar
libgallium-25.0.0-devel.so:dri2_get_capabilities
libgallium-25.0.0-devel.so:dri2_map_image
libgallium-25.0.0-devel.so:dri2_query_compression_modifiers
libgallium-25.0.0-devel.so:dri2_query_compression_rates
libgallium-25.0.0-devel.so:dri2_query_dma_buf_format_modifier_attribs
libgallium-25.0.0-devel.so:dri2_query_image
libgallium-25.0.0-devel.so:dri2_set_in_fence_fd
libgallium-25.0.0-devel.so:dri2_unmap_image
libgallium-25.0.0-devel.so:dri2_validate_usage
libgallium-25.0.0-devel.so:driBindContext
libgallium-25.0.0-devel.so:driCopyContext
libgallium-25.0.0-devel.so:driCreateContextAttribs
libgallium-25.0.0-devel.so:driCreateNewContext
libgallium-25.0.0-devel.so:driCreateNewScreen3
libgallium-25.0.0-devel.so:driDestroyContext
libgallium-25.0.0-devel.so:driDestroyDrawable
libgallium-25.0.0-devel.so:driDestroyScreen
libgallium-25.0.0-devel.so:driGetAPIMask
libgallium-25.0.0-devel.so:driGetConfigAttrib
libgallium-25.0.0-devel.so:driIndexConfigAttrib
libgallium-25.0.0-devel.so:driSWRastQueryBufferAge
libgallium-25.0.0-devel.so:driSwapBuffers
libgallium-25.0.0-devel.so:driSwapBuffersWithDamage
libgallium-25.0.0-devel.so:driUnbindContext
libgallium-25.0.0-devel.so:dri_client_wait_sync
libgallium-25.0.0-devel.so:dri_create_drawable
libgallium-25.0.0-devel.so:dri_create_fence
libgallium-25.0.0-devel.so:dri_create_fence_fd
libgallium-25.0.0-devel.so:dri_create_image
libgallium-25.0.0-devel.so:dri_create_image_from_renderbuffer
libgallium-25.0.0-devel.so:dri_create_image_with_modifiers
libgallium-25.0.0-devel.so:dri_destroy_fence
libgallium-25.0.0-devel.so:dri_fence_get_caps
libgallium-25.0.0-devel.so:dri_flush
libgallium-25.0.0-devel.so:dri_flush_drawable
libgallium-25.0.0-devel.so:dri_get_fence_fd
libgallium-25.0.0-devel.so:dri_get_fence_from_cl_event
libgallium-25.0.0-devel.so:dri_get_initial_swap_interval
libgallium-25.0.0-devel.so:dri_get_pipe_screen
libgallium-25.0.0-devel.so:dri_interop_export_object
libgallium-25.0.0-devel.so:dri_interop_flush_objects
libgallium-25.0.0-devel.so:dri_interop_query_device_info
libgallium-25.0.0-devel.so:dri_invalidate_drawable
libgallium-25.0.0-devel.so:dri_query_compatible_render_only_device_fd
libgallium-25.0.0-devel.so:dri_query_dma_buf_formats
libgallium-25.0.0-devel.so:dri_query_dma_buf_modifiers
libgallium-25.0.0-devel.so:dri_query_renderer_integer
libgallium-25.0.0-devel.so:dri_query_renderer_string
libgallium-25.0.0-devel.so:dri_server_wait_sync
libgallium-25.0.0-devel.so:dri_set_blob_cache_funcs
libgallium-25.0.0-devel.so:dri_set_damage_region
libgallium-25.0.0-devel.so:dri_set_tex_buffer2
libgallium-25.0.0-devel.so:dri_throttle
libgallium-25.0.0-devel.so:dri_valid_swap_interval
libgallium-25.0.0-devel.so:driswCopySubBuffer
libgallium-25.0.0-devel.so:kopperQueryBufferAge
libgallium-25.0.0-devel.so:kopperSetSwapInterval
libgallium-25.0.0-devel.so:kopperSwapBuffers
libgallium-25.0.0-devel.so:kopperSwapBuffersWithDamage
libgallium-25.0.0-devel.so:libgallium-25.0.0-devel.so
libgallium-25.0.0-devel.so:loader_dri3_close_screen
libgallium-25.0.0-devel.so:loader_dri3_copy_drawable
libgallium-25.0.0-devel.so:loader_dri3_copy_sub_buffer
libgallium-25.0.0-devel.so:loader_dri3_create_image
libgallium-25.0.0-devel.so:loader_dri3_create_image_from_buffers
libgallium-25.0.0-devel.so:loader_dri3_drawable_fini
libgallium-25.0.0-devel.so:loader_dri3_drawable_init
libgallium-25.0.0-devel.so:loader_dri3_flush
libgallium-25.0.0-devel.so:loader_dri3_get_buffers
libgallium-25.0.0-devel.so:loader_dri3_query_buffer_age
libgallium-25.0.0-devel.so:loader_dri3_set_swap_interval
libgallium-25.0.0-devel.so:loader_dri3_swap_buffers_msc
libgallium-25.0.0-devel.so:loader_dri3_swapbuffer_barrier
libgallium-25.0.0-devel.so:loader_dri3_update_drawable_geometry
libgallium-25.0.0-devel.so:loader_dri3_wait_for_msc
libgallium-25.0.0-devel.so:loader_dri3_wait_for_sbc
libgallium-25.0.0-devel.so:loader_dri3_wait_gl
libgallium-25.0.0-devel.so:loader_dri3_wait_x
libgallium-25.0.0-devel.so:noop_screen_create
libgallium-25.0.0-devel.so:radeon_drm_winsys_create
libgallium-25.0.0-devel.so:trace_screen_create
libgallium-25.0.0-devel.so:util_run_tests
libgallium-25.0.0-devel.so:vdp_imp_device_create_x11
libgbm.so.1:gbm_bo_create
libgbm.so.1:gbm_bo_create_with_modifiers
libgbm.so.1:gbm_bo_create_with_modifiers2
libgbm.so.1:gbm_bo_destroy
libgbm.so.1:gbm_bo_get_bpp
libgbm.so.1:gbm_bo_get_device
libgbm.so.1:gbm_bo_get_fd
libgbm.so.1:gbm_bo_get_fd_for_plane
libgbm.so.1:gbm_bo_get_format
libgbm.so.1:gbm_bo_get_handle
libgbm.so.1:gbm_bo_get_handle_for_plane
libgbm.so.1:gbm_bo_get_height
libgbm.so.1:gbm_bo_get_modifier
libgbm.so.1:gbm_bo_get_offset
libgbm.so.1:gbm_bo_get_plane_count
libgbm.so.1:gbm_bo_get_stride
libgbm.so.1:gbm_bo_get_stride_for_plane
libgbm.so.1:gbm_bo_get_user_data
libgbm.so.1:gbm_bo_get_width
libgbm.so.1:gbm_bo_import
libgbm.so.1:gbm_bo_map
libgbm.so.1:gbm_bo_set_user_data
libgbm.so.1:gbm_bo_unmap
libgbm.so.1:gbm_bo_write
libgbm.so.1:gbm_create_device
libgbm.so.1:gbm_device_destroy
libgbm.so.1:gbm_device_get_backend_name
libgbm.so.1:gbm_device_get_fd
libgbm.so.1:gbm_device_get_format_modifier_plane_count
libgbm.so.1:gbm_device_is_format_supported
libgbm.so.1:gbm_format_get_name
libgbm.so.1:gbm_surface_create
libgbm.so.1:gbm_surface_create_with_modifiers
libgbm.so.1:gbm_surface_create_with_modifiers2
libgbm.so.1:gbm_surface_destroy
libgbm.so.1:gbm_surface_has_free_buffers
libgbm.so.1:gbm_surface_lock_front_buffer
libgbm.so.1:gbm_surface_release_buffer
libvulkan_intel.so:vk_icdGetInstanceProcAddr
libvulkan_intel.so:vk_icdGetPhysicalDeviceProcAddr
libvulkan_intel.so:vk_icdNegotiateLoaderICDInterfaceVersion
libvulkan_intel_hasvk.so:vk_icdGetInstanceProcAddr
libvulkan_intel_hasvk.so:vk_icdGetPhysicalDeviceProcAddr
libvulkan_intel_hasvk.so:vk_icdNegotiateLoaderICDInterfaceVersion
libvulkan_lvp.so:ddebug_screen_create
libvulkan_lvp.so:noop_screen_create
libvulkan_lvp.so:trace_screen_create
libvulkan_lvp.so:util_run_tests
libvulkan_lvp.so:vk_icdGetInstanceProcAddr
libvulkan_lvp.so:vk_icdGetPhysicalDeviceProcAddr
libvulkan_lvp.so:vk_icdNegotiateLoaderICDInterfaceVersion
libvulkan_nouveau.so:_ZN100_$LT$alloc..ffi..c_str..CString$u20$as$u20$core..convert..From$LT$$RF$core..ffi..c_str..CStr$GT$$GT$4from17h99a36051b2b82ca0E
libvulkan_nouveau.so:_ZN100_$LT$nvidia_headers..nvh_classes_cla097_mthd..SetVabColor3F$u20$as$u20$nvidia_headers..ArrayMthd$GT$4addr17h34b6499ea38cf459E
libvulkan_nouveau.so:_ZN100_$LT$nvidia_headers..nvh_classes_cla097_mthd..SetVabColor4F$u20$as$u20$nvidia_headers..ArrayMthd$GT$4addr17hae24220231aa9eb9E
libvulkan_nouveau.so:_ZN101_$LT$core..char..CaseMappingIter$u20$as$u20$core..iter..traits..double_ended..DoubleEndedIterator$GT$15advance_back_by17h0043ed39bd6d9d83E
libvulkan_nouveau.so:_ZN101_$LT$core..char..CaseMappingIter$u20$as$u20$core..iter..traits..double_ended..DoubleEndedIterator$GT$9next_back17hbf27ce99921b7220E
libvulkan_nouveau.so:_ZN101_$LT$nvidia_headers..nvh_classes_cl902d_mthd..ColorPatternY8$u20$as$u20$nvidia_headers..ArrayMthd$GT$4addr17h8b29f74f171169a4E
libvulkan_nouveau.so:_ZN101_$LT$nvidia_headers..nvh_classes_cla097_mthd..SetVabColor4Ub$u20$as$u20$nvidia_headers..ArrayMthd$GT$4addr17h78f6041ab24fb1acE
libvulkan_nouveau.so:_ZN101_$LT$nvidia_headers..nvh_classes_cla097_mthd..SetVabNormal3F$u20$as$u20$nvidia_headers..ArrayMthd$GT$4addr17hf2adfc0e74ba807aE
libvulkan_nouveau.so:_ZN101_$LT$nvidia_headers..nvh_classes_cla097_mthd..SetVabNormal3S$u20$as$u20$nvidia_headers..ArrayMthd$GT$4addr17haeed273c856ea15eE
libvulkan_nouveau.so:_ZN101_$LT$nvidia_headers..nvh_classes_cla097_mthd..SetVabVertex2F$u20$as$u20$nvidia_headers..ArrayMthd$GT$4addr17hf3e40ea7450c758aE
libvulkan_nouveau.so:_ZN101_$LT$nvidia_headers..nvh_classes_cla097_mthd..SetVabVertex3F$u20$as$u20$nvidia_headers..ArrayMthd$GT$4addr17hd0b8a120fcd35603E
libvulkan_nouveau.so:_ZN101_$LT$nvidia_headers..nvh_classes_cla097_mthd..SetVabVertex4F$u20$as$u20$nvidia_headers..ArrayMthd$GT$4addr17h0e2f219e3ce46b73E
libvulkan_nouveau.so:_ZN101_$LT$std..os..unix..net..addr..SocketAddr$u20$as$u20$std..os..net..linux_ext..addr..SocketAddrExt$GT$16as_abstract_name17h54e47bd9555200caE
libvulkan_nouveau.so:_ZN101_$LT$std..sys..pal..unix..args..Args$u20$as$u20$core..iter..traits..exact_size..ExactSizeIterator$GT$3len17hce26e2f26cb7f287E
libvulkan_nouveau.so:_ZN102_$LT$nvidia_headers..nvh_classes_cla097_mthd..SetColorTargetA$u20$as$u20$nvidia_headers..ArrayMthd$GT$4addr17hcba56075bb5db24dE
libvulkan_nouveau.so:_ZN102_$LT$nvidia_headers..nvh_classes_cla097_mthd..SetColorTargetB$u20$as$u20$nvidia_headers..ArrayMthd$GT$4addr17h2a267628d90c3524E
libvulkan_nouveau.so:_ZN102_$LT$nvidia_headers..nvh_classes_clb097_mthd..SetColorTargetA$u20$as$u20$nvidia_headers..ArrayMthd$GT$4addr17h7d2a71d710740424E
libvulkan_nouveau.so:_ZN102_$LT$nvidia_headers..nvh_classes_clb097_mthd..SetColorTargetB$u20$as$u20$nvidia_headers..ArrayMthd$GT$4addr17h18fe7f9769453ca5E
libvulkan_nouveau.so:_ZN102_$LT$nvidia_headers..nvh_classes_clb197_mthd..SetColorTargetA$u20$as$u20$nvidia_headers..ArrayMthd$GT$4addr17h13538a24b982a944E
libvulkan_nouveau.so:_ZN102_$LT$nvidia_headers..nvh_classes_clb197_mthd..SetColorTargetB$u20$as$u20$nvidia_headers..ArrayMthd$GT$4addr17h9fefc4d03f62117eE
libvulkan_nouveau.so:_ZN102_$LT$nvidia_headers..nvh_classes_clc097_mthd..SetColorTargetA$u20$as$u20$nvidia_headers..ArrayMthd$GT$4addr17hbdfb204d74fc0d2dE
libvulkan_nouveau.so:_ZN102_$LT$nvidia_headers..nvh_classes_clc097_mthd..SetColorTargetB$u20$as$u20$nvidia_headers..ArrayMthd$GT$4addr17h3bc9404176108859E
libvulkan_nouveau.so:_ZN102_$LT$nvidia_headers..nvh_classes_clc397_mthd..SetColorTargetA$u20$as$u20$nvidia_headers..ArrayMthd$GT$4addr17ha699fd2c6ffd1e47E
libvulkan_nouveau.so:_ZN102_$LT$nvidia_headers..nvh_classes_clc397_mthd..SetColorTargetB$u20$as$u20$nvidia_headers..ArrayMthd$GT$4addr17h8ba9eade27d9ab7eE
libvulkan_nouveau.so:_ZN102_$LT$nvidia_headers..nvh_classes_clc797_mthd..SetColorTargetA$u20$as$u20$nvidia_headers..ArrayMthd$GT$4addr17hf76048de40d3a59dE
libvulkan_nouveau.so:_ZN102_$LT$nvidia_headers..nvh_classes_clc797_mthd..SetColorTargetB$u20$as$u20$nvidia_headers..ArrayMthd$GT$4addr17h0ed21dfba7c942beE
libvulkan_nouveau.so:_ZN102_$LT$std..panicking..begin_panic_handler..FormatStringPayload$u20$as$u20$core..panic..PanicPayload$GT$3get17ha60eac3d1bac56e6E
libvulkan_nouveau.so:_ZN102_$LT$std..panicking..begin_panic_handler..FormatStringPayload$u20$as$u20$core..panic..PanicPayload$GT$8take_box17h5ef05f0b54fa6629E
libvulkan_nouveau.so:_ZN103_$LT$nvidia_headers..nvh_classes_cl90c0_mthd..SetSuLdStTargetA$u20$as$u20$nvidia_headers..ArrayMthd$GT$4addr17h2e3e6537f142d4a9E
libvulkan_nouveau.so:_ZN103_$LT$nvidia_headers..nvh_classes_cl90c0_mthd..SetSuLdStTargetB$u20$as$u20$nvidia_headers..ArrayMthd$GT$4addr17h879e5373e7d96f5fE
libvulkan_nouveau.so:_ZN103_$LT$nvidia_headers..nvh_classes_cl90c0_mthd..SetSuLdStTargetC$u20$as$u20$nvidia_headers..ArrayMthd$GT$4addr17h33f0e2857b2be4feE
libvulkan_nouveau.so:_ZN103_$LT$nvidia_headers..nvh_classes_cl90c0_mthd..SetSuLdStTargetD$u20$as$u20$nvidia_headers..ArrayMthd$GT$4addr17hc92814aeed8fdaf0E
libvulkan_nouveau.so:_ZN103_$LT$nvidia_headers..nvh_classes_cla097_mthd..SetClipIdExtentX$u20$as$u20$nvidia_headers..ArrayMthd$GT$4addr17h660955ef2b1c75acE
libvulkan_nouveau.so:_ZN103_$LT$nvidia_headers..nvh_classes_cla097_mthd..SetClipIdExtentY$u20$as$u20$nvidia_headers..ArrayMthd$GT$4addr17h10cf2d90dc5982fdE
libvulkan_nouveau.so:_ZN103_$LT$nvidia_headers..nvh_classes_cla097_mthd..SetScissorEnable$u20$as$u20$nvidia_headers..ArrayMthd$GT$4addr17h822d52abc30655a1E
libvulkan_nouveau.so:_ZN103_$LT$nvidia_headers..nvh_classes_cla097_mthd..SetVabTexCoord1F$u20$as$u20$nvidia_headers..ArrayMthd$GT$4addr17h29a7f3a051fe257cE
libvulkan_nouveau.so:_ZN103_$LT$nvidia_headers..nvh_classes_cla097_mthd..SetVabTexCoord2F$u20$as$u20$nvidia_headers..ArrayMthd$GT$4addr17h6fb2adef94a76afeE
libvulkan_nouveau.so:_ZN103_$LT$nvidia_headers..nvh_classes_cla097_mthd..SetVabTexCoord3F$u20$as$u20$nvidia_headers..ArrayMthd$GT$4addr17hfefef14959bf6ca7E
libvulkan_nouveau.so:_ZN103_$LT$nvidia_headers..nvh_classes_cla097_mthd..SetVabTexCoord4F$u20$as$u20$nvidia_headers..ArrayMthd$GT$4addr17h098e759c88041789E
libvulkan_nouveau.so:_ZN103_$LT$nvidia_headers..nvh_classes_clb097_mthd..SetClipIdExtentX$u20$as$u20$nvidia_headers..ArrayMthd$GT$4addr17h0ee3501dadbcc4f5E
libvulkan_nouveau.so:_ZN103_$LT$nvidia_headers..nvh_classes_clb097_mthd..SetClipIdExtentY$u20$as$u20$nvidia_headers..ArrayMthd$GT$4addr17hfc2753e231c869e4E
libvulkan_nouveau.so:_ZN103_$LT$nvidia_headers..nvh_classes_clb097_mthd..SetScissorEnable$u20$as$u20$nvidia_headers..ArrayMthd$GT$4addr17h1ea7003c6f266f8eE
libvulkan_nouveau.so:_ZN103_$LT$nvidia_headers..nvh_classes_clb197_mthd..SetClipIdExtentX$u20$as$u20$nvidia_headers..ArrayMthd$GT$4addr17h5a67d7e8d80ea2d9E
libvulkan_nouveau.so:_ZN103_$LT$nvidia_headers..nvh_classes_clb197_mthd..SetClipIdExtentY$u20$as$u20$nvidia_headers..ArrayMthd$GT$4addr17hc0a499c980fd9612E
libvulkan_nouveau.so:_ZN103_$LT$nvidia_headers..nvh_classes_clb197_mthd..SetScissorEnable$u20$as$u20$nvidia_headers..ArrayMthd$GT$4addr17h6c71d8b9b7253d29E
libvulkan_nouveau.so:_ZN103_$LT$nvidia_headers..nvh_classes_clc097_mthd..SetClipIdExtentX$u20$as$u20$nvidia_headers..ArrayMthd$GT$4addr17hca1c25af9689d006E
libvulkan_nouveau.so:_ZN103_$LT$nvidia_headers..nvh_classes_clc097_mthd..SetClipIdExtentY$u20$as$u20$nvidia_headers..ArrayMthd$GT$4addr17hc5a1e3fd58661931E
libvulkan_nouveau.so:_ZN103_$LT$nvidia_headers..nvh_classes_clc097_mthd..SetScissorEnable$u20$as$u20$nvidia_headers..ArrayMthd$GT$4addr17hd7b8c7f1e3d0c531E
libvulkan_nouveau.so:_ZN103_$LT$nvidia_headers..nvh_classes_clc397_mthd..SetClipIdExtentX$u20$as$u20$nvidia_headers..ArrayMthd$GT$4addr17hcfd8fd3c7a450b47E
libvulkan_nouveau.so:_ZN103_$LT$nvidia_headers..nvh_classes_clc397_mthd..SetClipIdExtentY$u20$as$u20$nvidia_headers..ArrayMthd$GT$4addr17h83707c3a28f55f77E
libvulkan_nouveau.so:_ZN103_$LT$nvidia_headers..nvh_classes_clc397_mthd..SetScissorEnable$u20$as$u20$nvidia_headers..ArrayMthd$GT$4addr17h7bc7d272eeca3bd6E
libvulkan_nouveau.so:_ZN103_$LT$nvidia_headers..nvh_classes_clc797_mthd..SetClipIdExtentX$u20$as$u20$nvidia_headers..ArrayMthd$GT$4addr17haea37387714b6ad6E
libvulkan_nouveau.so:_ZN103_$LT$nvidia_headers..nvh_classes_clc797_mthd..SetClipIdExtentY$u20$as$u20$nvidia_headers..ArrayMthd$GT$4addr17h8cf8b7c513868be8E
libvulkan_nouveau.so:_ZN103_$LT$nvidia_headers..nvh_classes_clc797_mthd..SetScissorEnable$u20$as$u20$nvidia_headers..ArrayMthd$GT$4addr17h898022c1eb78cdafE
libvulkan_nouveau.so:_ZN103_$LT$object..read..archive..ArchiveSymbolIterator$u20$as$u20$core..iter..traits..iterator..Iterator$GT$4next17he7c64a88ac497e9cE
libvulkan_nouveau.so:_ZN104_$LT$core..iter..adapters..copied..Copied$LT$I$GT$$u20$as$u20$core..iter..traits..iterator..Iterator$GT$4next17h5dc2f2bf3f9a7187E
libvulkan_nouveau.so:_ZN104_$LT$nvidia_headers..nvh_classes_cla097_mthd..SetPipelineShader$u20$as$u20$nvidia_headers..ArrayMthd$GT$4addr17h18af366c52006c39E
libvulkan_nouveau.so:_ZN104_$LT$nvidia_headers..nvh_classes_cla097_mthd..SetViewportScaleX$u20$as$u20$nvidia_headers..ArrayMthd$GT$4addr17h5e5e176fb2282796E
libvulkan_nouveau.so:_ZN104_$LT$nvidia_headers..nvh_classes_cla097_mthd..SetViewportScaleY$u20$as$u20$nvidia_headers..ArrayMthd$GT$4addr17h8082a0dc2dc6e52bE
libvulkan_nouveau.so:_ZN104_$LT$nvidia_headers..nvh_classes_cla097_mthd..SetViewportScaleZ$u20$as$u20$nvidia_headers..ArrayMthd$GT$4addr17hffaccc4164d9c849E
libvulkan_nouveau.so:_ZN104_$LT$nvidia_headers..nvh_classes_clb097_mthd..SetPipelineShader$u20$as$u20$nvidia_headers..ArrayMthd$GT$4addr17hcd9461f113e6a224E
libvulkan_nouveau.so:_ZN104_$LT$nvidia_headers..nvh_classes_clb097_mthd..SetViewportScaleX$u20$as$u20$nvidia_headers..ArrayMthd$GT$4addr17he6cf12bdcd15fe15E
libvulkan_nouveau.so:_ZN104_$LT$nvidia_headers..nvh_classes_clb097_mthd..SetViewportScaleY$u20$as$u20$nvidia_headers..ArrayMthd$GT$4addr17hca5b7079c091c6a3E
libvulkan_nouveau.so:_ZN104_$LT$nvidia_headers..nvh_classes_clb097_mthd..SetViewportScaleZ$u20$as$u20$nvidia_headers..ArrayMthd$GT$4addr17h24613f4f6258009fE
libvulkan_nouveau.so:_ZN104_$LT$nvidia_headers..nvh_classes_clb197_mthd..SetPipelineShader$u20$as$u20$nvidia_headers..ArrayMthd$GT$4addr17h8ca7eb27a750d116E
libvulkan_nouveau.so:_ZN104_$LT$nvidia_headers..nvh_classes_clb197_mthd..SetViewportScaleX$u20$as$u20$nvidia_headers..ArrayMthd$GT$4addr17h2624d85d7847250cE
libvulkan_nouveau.so:_ZN104_$LT$nvidia_headers..nvh_classes_clb197_mthd..SetViewportScaleY$u20$as$u20$nvidia_headers..ArrayMthd$GT$4addr17h63f29caedcee5142E
libvulkan_nouveau.so:_ZN104_$LT$nvidia_headers..nvh_classes_clb197_mthd..SetViewportScaleZ$u20$as$u20$nvidia_headers..ArrayMthd$GT$4addr17hee63cc45db53f0a9E
libvulkan_nouveau.so:_ZN104_$LT$nvidia_headers..nvh_classes_clc097_mthd..SetPipelineShader$u20$as$u20$nvidia_headers..ArrayMthd$GT$4addr17h8891d64a6c8f29a6E
libvulkan_nouveau.so:_ZN104_$LT$nvidia_headers..nvh_classes_clc097_mthd..SetViewportScaleX$u20$as$u20$nvidia_headers..ArrayMthd$GT$4addr17h7de1dc071c37889fE
libvulkan_nouveau.so:_ZN104_$LT$nvidia_headers..nvh_classes_clc097_mthd..SetViewportScaleY$u20$as$u20$nvidia_headers..ArrayMthd$GT$4addr17hd7336d016cafdd16E
libvulkan_nouveau.so:_ZN104_$LT$nvidia_headers..nvh_classes_clc097_mthd..SetViewportScaleZ$u20$as$u20$nvidia_headers..ArrayMthd$GT$4addr17heccab7f866e1ef71E
libvulkan_nouveau.so:_ZN104_$LT$nvidia_headers..nvh_classes_clc0c0_mthd..LoadInlineQmdData$u20$as$u20$nvidia_headers..ArrayMthd$GT$4addr17hd0f6a255206eb75bE
libvulkan_nouveau.so:_ZN104_$LT$nvidia_headers..nvh_classes_clc397_mthd..SetPipelineShader$u20$as$u20$nvidia_headers..ArrayMthd$GT$4addr17h344460f11704574aE
libvulkan_nouveau.so:_ZN104_$LT$nvidia_headers..nvh_classes_clc397_mthd..SetViewportScaleX$u20$as$u20$nvidia_headers..ArrayMthd$GT$4addr17hdbe8272c69a8075eE
libvulkan_nouveau.so:_ZN104_$LT$nvidia_headers..nvh_classes_clc397_mthd..SetViewportScaleY$u20$as$u20$nvidia_headers..ArrayMthd$GT$4addr17h0f08c7dd5d188a40E
libvulkan_nouveau.so:_ZN104_$LT$nvidia_headers..nvh_classes_clc397_mthd..SetViewportScaleZ$u20$as$u20$nvidia_headers..ArrayMthd$GT$4addr17h44826fff71c402d9E
libvulkan_nouveau.so:_ZN104_$LT$nvidia_headers..nvh_classes_clc3c0_mthd..LoadInlineQmdData$u20$as$u20$nvidia_headers..ArrayMthd$GT$4addr17h35465ffd70539d18E
libvulkan_nouveau.so:_ZN104_$LT$nvidia_headers..nvh_classes_clc5c0_mthd..LoadInlineQmdData$u20$as$u20$nvidia_headers..ArrayMthd$GT$4addr17h6de5c0e8de4fe9b0E
libvulkan_nouveau.so:_ZN104_$LT$nvidia_headers..nvh_classes_clc6c0_mthd..LoadInlineQmdData$u20$as$u20$nvidia_headers..ArrayMthd$GT$4addr17he539b42ea0fa7cacE
libvulkan_nouveau.so:_ZN104_$LT$nvidia_headers..nvh_classes_clc797_mthd..SetPipelineShader$u20$as$u20$nvidia_headers..ArrayMthd$GT$4addr17hd25dc5c8f70a100aE
libvulkan_nouveau.so:_ZN104_$LT$nvidia_headers..nvh_classes_clc797_mthd..SetViewportScaleX$u20$as$u20$nvidia_headers..ArrayMthd$GT$4addr17h682f89ff3ae7bbc4E
libvulkan_nouveau.so:_ZN104_$LT$nvidia_headers..nvh_classes_clc797_mthd..SetViewportScaleY$u20$as$u20$nvidia_headers..ArrayMthd$GT$4addr17h6d4c30494e43e488E
libvulkan_nouveau.so:_ZN104_$LT$nvidia_headers..nvh_classes_clc797_mthd..SetViewportScaleZ$u20$as$u20$nvidia_headers..ArrayMthd$GT$4addr17ha15d39b97954a0e8E
libvulkan_nouveau.so:_ZN104_$LT$nvidia_headers..nvh_classes_clc7c0_mthd..LoadInlineQmdData$u20$as$u20$nvidia_headers..ArrayMthd$GT$4addr17hd9eb80c88abce0ebE
libvulkan_nouveau.so:_ZN104_$LT$std..os..unix..net..ancillary..ScmCredentials$u20$as$u20$core..iter..traits..iterator..Iterator$GT$4next17h6d91c7be9541525bE
libvulkan_nouveau.so:_ZN104_$LT$std..sys_common..net..LookupHost$u20$as$u20$core..convert..TryFrom$LT$$LP$$RF$str$C$u16$RP$$GT$$GT$8try_from17hddc5c261d5984863E
libvulkan_nouveau.so:_ZN105_$LT$core..slice..ascii..EscapeAscii$u20$as$u20$core..iter..traits..double_ended..DoubleEndedIterator$GT$9next_back17hc56abe6cfd2befc0E
libvulkan_nouveau.so:_ZN105_$LT$dyn$u20$core..any..Any$u2b$core..marker..Sync$u2b$core..marker..Send$u20$as$u20$core..fmt..Debug$GT$3fmt17h295f0e1110384166E
libvulkan_nouveau.so:_ZN105_$LT$nvidia_headers..nvh_classes_cl902d_mthd..ColorPatternR5G6B5$u20$as$u20$nvidia_headers..ArrayMthd$GT$4addr17h2108d2ca7bc032bfE
libvulkan_nouveau.so:_ZN105_$LT$nvidia_headers..nvh_classes_cl90c0_mthd..LoadConstantBuffer$u20$as$u20$nvidia_headers..ArrayMthd$GT$4addr17h99f22d81c9eb622eE
libvulkan_nouveau.so:_ZN105_$LT$nvidia_headers..nvh_classes_cla097_mthd..BindGroupReservedA$u20$as$u20$nvidia_headers..ArrayMthd$GT$4addr17h638f8611994c1aa9E
libvulkan_nouveau.so:_ZN105_$LT$nvidia_headers..nvh_classes_cla097_mthd..BindGroupReservedB$u20$as$u20$nvidia_headers..ArrayMthd$GT$4addr17h967fd94b6591caa1E
libvulkan_nouveau.so:_ZN105_$LT$nvidia_headers..nvh_classes_cla097_mthd..BindGroupReservedC$u20$as$u20$nvidia_headers..ArrayMthd$GT$4addr17h23825fe2cc51a7b4E
libvulkan_nouveau.so:_ZN105_$LT$nvidia_headers..nvh_classes_cla097_mthd..BindGroupReservedD$u20$as$u20$nvidia_headers..ArrayMthd$GT$4addr17h229e75bec79bee47E
libvulkan_nouveau.so:_ZN105_$LT$nvidia_headers..nvh_classes_cla097_mthd..LoadConstantBuffer$u20$as$u20$nvidia_headers..ArrayMthd$GT$4addr17h0cd0b7b79ac9e759E
libvulkan_nouveau.so:_ZN105_$LT$nvidia_headers..nvh_classes_cla097_mthd..SetColorClearValue$u20$as$u20$nvidia_headers..ArrayMthd$GT$4addr17h32e9701709b30fb8E
libvulkan_nouveau.so:_ZN105_$LT$nvidia_headers..nvh_classes_cla097_mthd..SetColorTargetMark$u20$as$u20$nvidia_headers..ArrayMthd$GT$4addr17hcae74467f5646cd8E
libvulkan_nouveau.so:_ZN105_$LT$nvidia_headers..nvh_classes_cla097_mthd..SetPipelineBinding$u20$as$u20$nvidia_headers..ArrayMthd$GT$4addr17hfb8b753bfb4cf905E
libvulkan_nouveau.so:_ZN105_$LT$nvidia_headers..nvh_classes_cla097_mthd..SetPipelineProgram$u20$as$u20$nvidia_headers..ArrayMthd$GT$4addr17h93ea838cb38a5082E
libvulkan_nouveau.so:_ZN105_$LT$nvidia_headers..nvh_classes_cla097_mthd..SetScissorVertical$u20$as$u20$nvidia_headers..ArrayMthd$GT$4addr17hd64d52a38c4facf5E
libvulkan_nouveau.so:_ZN105_$LT$nvidia_headers..nvh_classes_cla097_mthd..SetVabDataTypeless$u20$as$u20$nvidia_headers..ArrayMthd$GT$4addr17hab9aaeacc520e2a3E
libvulkan_nouveau.so:_ZN105_$LT$nvidia_headers..nvh_classes_cla097_mthd..SetViewportOffsetX$u20$as$u20$nvidia_headers..ArrayMthd$GT$4addr17h0d9d30259c57f665E
libvulkan_nouveau.so:_ZN105_$LT$nvidia_headers..nvh_classes_cla097_mthd..SetViewportOffsetY$u20$as$u20$nvidia_headers..ArrayMthd$GT$4addr17h9fbbb837d60196beE
libvulkan_nouveau.so:_ZN105_$LT$nvidia_headers..nvh_classes_cla097_mthd..SetViewportOffsetZ$u20$as$u20$nvidia_headers..ArrayMthd$GT$4addr17h34a17cfdb7f53b11E
libvulkan_nouveau.so:_ZN105_$LT$nvidia_headers..nvh_classes_clb097_mthd..BindGroupReservedA$u20$as$u20$nvidia_headers..ArrayMthd$GT$4addr17hada9053319a25de5E
libvulkan_nouveau.so:_ZN105_$LT$nvidia_headers..nvh_classes_clb097_mthd..BindGroupReservedB$u20$as$u20$nvidia_headers..ArrayMthd$GT$4addr17h795fe65e38dc07c7E
libvulkan_nouveau.so:_ZN105_$LT$nvidia_headers..nvh_classes_clb097_mthd..BindGroupReservedC$u20$as$u20$nvidia_headers..ArrayMthd$GT$4addr17h148e74a4529a3bc2E
libvulkan_nouveau.so:_ZN105_$LT$nvidia_headers..nvh_classes_clb097_mthd..BindGroupReservedD$u20$as$u20$nvidia_headers..ArrayMthd$GT$4addr17h661e4c022014dabaE
libvulkan_nouveau.so:_ZN105_$LT$nvidia_headers..nvh_classes_clb097_mthd..LoadConstantBuffer$u20$as$u20$nvidia_headers..ArrayMthd$GT$4addr17hd1eb3eb76038f047E
libvulkan_nouveau.so:_ZN105_$LT$nvidia_headers..nvh_classes_clb097_mthd..SetColorClearValue$u20$as$u20$nvidia_headers..ArrayMthd$GT$4addr17h9a4a621224a703bfE
libvulkan_nouveau.so:_ZN105_$LT$nvidia_headers..nvh_classes_clb097_mthd..SetColorTargetMark$u20$as$u20$nvidia_headers..ArrayMthd$GT$4addr17h9705cb861b23773bE
libvulkan_nouveau.so:_ZN105_$LT$nvidia_headers..nvh_classes_clb097_mthd..SetPipelineBinding$u20$as$u20$nvidia_headers..ArrayMthd$GT$4addr17hcf3173fcbc74b7f9E
libvulkan_nouveau.so:_ZN105_$LT$nvidia_headers..nvh_classes_clb097_mthd..SetPipelineProgram$u20$as$u20$nvidia_headers..ArrayMthd$GT$4addr17h05044f169cd656d5E
libvulkan_nouveau.so:_ZN105_$LT$nvidia_headers..nvh_classes_clb097_mthd..SetScissorVertical$u20$as$u20$nvidia_headers..ArrayMthd$GT$4addr17ha7dc1fb94e32d258E
libvulkan_nouveau.so:_ZN105_$LT$nvidia_headers..nvh_classes_clb097_mthd..SetViewportOffsetX$u20$as$u20$nvidia_headers..ArrayMthd$GT$4addr17h60622dfd13028ed8E
libvulkan_nouveau.so:_ZN105_$LT$nvidia_headers..nvh_classes_clb097_mthd..SetViewportOffsetY$u20$as$u20$nvidia_headers..ArrayMthd$GT$4addr17hca0b096678f4774aE
libvulkan_nouveau.so:_ZN105_$LT$nvidia_headers..nvh_classes_clb097_mthd..SetViewportOffsetZ$u20$as$u20$nvidia_headers..ArrayMthd$GT$4addr17h9c8e762acd65785dE
libvulkan_nouveau.so:_ZN105_$LT$nvidia_headers..nvh_classes_clb197_mthd..BindGroupReservedA$u20$as$u20$nvidia_headers..ArrayMthd$GT$4addr17h58e9ab7341c58540E
libvulkan_nouveau.so:_ZN105_$LT$nvidia_headers..nvh_classes_clb197_mthd..BindGroupReservedB$u20$as$u20$nvidia_headers..ArrayMthd$GT$4addr17h87b9257eab2d6a3eE
libvulkan_nouveau.so:_ZN105_$LT$nvidia_headers..nvh_classes_clb197_mthd..BindGroupReservedC$u20$as$u20$nvidia_headers..ArrayMthd$GT$4addr17h6326da1d2daf8c80E
libvulkan_nouveau.so:_ZN105_$LT$nvidia_headers..nvh_classes_clb197_mthd..BindGroupReservedD$u20$as$u20$nvidia_headers..ArrayMthd$GT$4addr17hceeb030f042ae0d3E
libvulkan_nouveau.so:_ZN105_$LT$nvidia_headers..nvh_classes_clb197_mthd..LoadConstantBuffer$u20$as$u20$nvidia_headers..ArrayMthd$GT$4addr17he56e33521770459bE
libvulkan_nouveau.so:_ZN105_$LT$nvidia_headers..nvh_classes_clb197_mthd..SetColorClearValue$u20$as$u20$nvidia_headers..ArrayMthd$GT$4addr17ha509b104fa89e21fE
libvulkan_nouveau.so:_ZN105_$LT$nvidia_headers..nvh_classes_clb197_mthd..SetColorTargetMark$u20$as$u20$nvidia_headers..ArrayMthd$GT$4addr17h190c2b1370e650b0E
libvulkan_nouveau.so:_ZN105_$LT$nvidia_headers..nvh_classes_clb197_mthd..SetPipelineBinding$u20$as$u20$nvidia_headers..ArrayMthd$GT$4addr17h6e5fa4476ba0c399E
libvulkan_nouveau.so:_ZN105_$LT$nvidia_headers..nvh_classes_clb197_mthd..SetPipelineProgram$u20$as$u20$nvidia_headers..ArrayMthd$GT$4addr17h5fef53289b6a0ea5E
libvulkan_nouveau.so:_ZN105_$LT$nvidia_headers..nvh_classes_clb197_mthd..SetScissorVertical$u20$as$u20$nvidia_headers..ArrayMthd$GT$4addr17h74b63efbc77eb228E
libvulkan_nouveau.so:_ZN105_$LT$nvidia_headers..nvh_classes_clb197_mthd..SetViewportOffsetX$u20$as$u20$nvidia_headers..ArrayMthd$GT$4addr17he266b2e49f60fcbbE
libvulkan_nouveau.so:_ZN105_$LT$nvidia_headers..nvh_classes_clb197_mthd..SetViewportOffsetY$u20$as$u20$nvidia_headers..ArrayMthd$GT$4addr17h741da54c8bd532f1E
libvulkan_nouveau.so:_ZN105_$LT$nvidia_headers..nvh_classes_clb197_mthd..SetViewportOffsetZ$u20$as$u20$nvidia_headers..ArrayMthd$GT$4addr17h03272529b6881383E
libvulkan_nouveau.so:_ZN105_$LT$nvidia_headers..nvh_classes_clc097_mthd..BindGroupReservedA$u20$as$u20$nvidia_headers..ArrayMthd$GT$4addr17h86545a6de2883a57E
libvulkan_nouveau.so:_ZN105_$LT$nvidia_headers..nvh_classes_clc097_mthd..BindGroupReservedB$u20$as$u20$nvidia_headers..ArrayMthd$GT$4addr17h528af0acb424e403E
libvulkan_nouveau.so:_ZN105_$LT$nvidia_headers..nvh_classes_clc097_mthd..BindGroupReservedC$u20$as$u20$nvidia_headers..ArrayMthd$GT$4addr17h43fad552a3e8800dE
libvulkan_nouveau.so:_ZN105_$LT$nvidia_headers..nvh_classes_clc097_mthd..BindGroupReservedD$u20$as$u20$nvidia_headers..ArrayMthd$GT$4addr17ha4c8956b31c6bfbcE
libvulkan_nouveau.so:_ZN105_$LT$nvidia_headers..nvh_classes_clc097_mthd..LoadConstantBuffer$u20$as$u20$nvidia_headers..ArrayMthd$GT$4addr17h7dfb75d4d80a34b4E
libvulkan_nouveau.so:_ZN105_$LT$nvidia_headers..nvh_classes_clc097_mthd..SetColorClearValue$u20$as$u20$nvidia_headers..ArrayMthd$GT$4addr17h232c8088b65c0196E
libvulkan_nouveau.so:_ZN105_$LT$nvidia_headers..nvh_classes_clc097_mthd..SetColorTargetMark$u20$as$u20$nvidia_headers..ArrayMthd$GT$4addr17h224ede65324ddb22E
libvulkan_nouveau.so:_ZN105_$LT$nvidia_headers..nvh_classes_clc097_mthd..SetPipelineBinding$u20$as$u20$nvidia_headers..ArrayMthd$GT$4addr17h8c78c26ba1fa61d8E
libvulkan_nouveau.so:_ZN105_$LT$nvidia_headers..nvh_classes_clc097_mthd..SetPipelineProgram$u20$as$u20$nvidia_headers..ArrayMthd$GT$4addr17hbb3e78113d7d97fdE
libvulkan_nouveau.so:_ZN105_$LT$nvidia_headers..nvh_classes_clc097_mthd..SetScissorVertical$u20$as$u20$nvidia_headers..ArrayMthd$GT$4addr17h8747c1aa9035d772E
libvulkan_nouveau.so:_ZN105_$LT$nvidia_headers..nvh_classes_clc097_mthd..SetViewportOffsetX$u20$as$u20$nvidia_headers..ArrayMthd$GT$4addr17hda3fe22f9e495602E
libvulkan_nouveau.so:_ZN105_$LT$nvidia_headers..nvh_classes_clc097_mthd..SetViewportOffsetY$u20$as$u20$nvidia_headers..ArrayMthd$GT$4addr17hc638c9b5cae5ba2dE
libvulkan_nouveau.so:_ZN105_$LT$nvidia_headers..nvh_classes_clc097_mthd..SetViewportOffsetZ$u20$as$u20$nvidia_headers..ArrayMthd$GT$4addr17h081226c0fcd343a7E
libvulkan_nouveau.so:_ZN105_$LT$nvidia_headers..nvh_classes_clc397_mthd..BindGroupReservedA$u20$as$u20$nvidia_headers..ArrayMthd$GT$4addr17h411fa4ef58a3bb0fE
libvulkan_nouveau.so:_ZN105_$LT$nvidia_headers..nvh_classes_clc397_mthd..BindGroupReservedB$u20$as$u20$nvidia_headers..ArrayMthd$GT$4addr17hb12d94f34e20d9d9E
libvulkan_nouveau.so:_ZN105_$LT$nvidia_headers..nvh_classes_clc397_mthd..BindGroupReservedC$u20$as$u20$nvidia_headers..ArrayMthd$GT$4addr17hfcabdf8e91f0994bE
libvulkan_nouveau.so:_ZN105_$LT$nvidia_headers..nvh_classes_clc397_mthd..BindGroupReservedD$u20$as$u20$nvidia_headers..ArrayMthd$GT$4addr17hf51c7a96636ede8aE
libvulkan_nouveau.so:_ZN105_$LT$nvidia_headers..nvh_classes_clc397_mthd..LoadConstantBuffer$u20$as$u20$nvidia_headers..ArrayMthd$GT$4addr17h8b50525137e8c65dE
libvulkan_nouveau.so:_ZN105_$LT$nvidia_headers..nvh_classes_clc397_mthd..SetColorClearValue$u20$as$u20$nvidia_headers..ArrayMthd$GT$4addr17hb9c272e28693a4b2E
libvulkan_nouveau.so:_ZN105_$LT$nvidia_headers..nvh_classes_clc397_mthd..SetPipelineBinding$u20$as$u20$nvidia_headers..ArrayMthd$GT$4addr17h7481f43baeb2c0dcE
libvulkan_nouveau.so:_ZN105_$LT$nvidia_headers..nvh_classes_clc397_mthd..SetScissorVertical$u20$as$u20$nvidia_headers..ArrayMthd$GT$4addr17he376a96e2904f396E
libvulkan_nouveau.so:_ZN105_$LT$nvidia_headers..nvh_classes_clc397_mthd..SetViewportOffsetX$u20$as$u20$nvidia_headers..ArrayMthd$GT$4addr17h2fd94a4091410bbfE
libvulkan_nouveau.so:_ZN105_$LT$nvidia_headers..nvh_classes_clc397_mthd..SetViewportOffsetY$u20$as$u20$nvidia_headers..ArrayMthd$GT$4addr17hc599d564c908479dE
libvulkan_nouveau.so:_ZN105_$LT$nvidia_headers..nvh_classes_clc397_mthd..SetViewportOffsetZ$u20$as$u20$nvidia_headers..ArrayMthd$GT$4addr17h4e725fb47505a166E
libvulkan_nouveau.so:_ZN105_$LT$nvidia_headers..nvh_classes_clc797_mthd..BindGroupReservedA$u20$as$u20$nvidia_headers..ArrayMthd$GT$4addr17h565d75e2fa73239fE
libvulkan_nouveau.so:_ZN105_$LT$nvidia_headers..nvh_classes_clc797_mthd..BindGroupReservedB$u20$as$u20$nvidia_headers..ArrayMthd$GT$4addr17hf80fc3e42ae8c110E
libvulkan_nouveau.so:_ZN105_$LT$nvidia_headers..nvh_classes_clc797_mthd..BindGroupReservedC$u20$as$u20$nvidia_headers..ArrayMthd$GT$4addr17hd8b9207de8aca529E
libvulkan_nouveau.so:_ZN105_$LT$nvidia_headers..nvh_classes_clc797_mthd..BindGroupReservedD$u20$as$u20$nvidia_headers..ArrayMthd$GT$4addr17h716766b99c77ab16E
libvulkan_nouveau.so:_ZN105_$LT$nvidia_headers..nvh_classes_clc797_mthd..LoadConstantBuffer$u20$as$u20$nvidia_headers..ArrayMthd$GT$4addr17h7853dc525a498bb2E
libvulkan_nouveau.so:_ZN105_$LT$nvidia_headers..nvh_classes_clc797_mthd..SetColorClearValue$u20$as$u20$nvidia_headers..ArrayMthd$GT$4addr17h7a0f362009e28bbbE
libvulkan_nouveau.so:_ZN105_$LT$nvidia_headers..nvh_classes_clc797_mthd..SetPipelineBinding$u20$as$u20$nvidia_headers..ArrayMthd$GT$4addr17h06a97f778f7e376bE
libvulkan_nouveau.so:_ZN105_$LT$nvidia_headers..nvh_classes_clc797_mthd..SetScissorVertical$u20$as$u20$nvidia_headers..ArrayMthd$GT$4addr17hc011f5e5f279e839E
libvulkan_nouveau.so:_ZN105_$LT$nvidia_headers..nvh_classes_clc797_mthd..SetViewportOffsetX$u20$as$u20$nvidia_headers..ArrayMthd$GT$4addr17h6880eff869c5889cE
libvulkan_nouveau.so:_ZN105_$LT$nvidia_headers..nvh_classes_clc797_mthd..SetViewportOffsetY$u20$as$u20$nvidia_headers..ArrayMthd$GT$4addr17he3dd0e19ec265d4eE
libvulkan_nouveau.so:_ZN105_$LT$nvidia_headers..nvh_classes_clc797_mthd..SetViewportOffsetZ$u20$as$u20$nvidia_headers..ArrayMthd$GT$4addr17h5298f2c3467bcb98E
libvulkan_nouveau.so:_ZN105_$LT$std..os..unix..net..stream..UnixStream$u20$as$u20$std..os..net..linux_ext..socket..UnixSocketExt$GT$12set_passcred17hd605f5ad80691259E
libvulkan_nouveau.so:_ZN105_$LT$std..os..unix..net..stream..UnixStream$u20$as$u20$std..os..net..linux_ext..socket..UnixSocketExt$GT$8passcred17h31e226211885e5bfE
libvulkan_nouveau.so:_ZN105_$LT$std..sys..pal..unix..args..Args$u20$as$u20$core..iter..traits..double_ended..DoubleEndedIterator$GT$9next_back17h80cd46cf954f9195E
libvulkan_nouveau.so:_ZN106_$LT$$LT$std..path..Iter$u20$as$u20$core..fmt..Debug$GT$..fmt..DebugHelper$u20$as$u20$core..fmt..Debug$GT$3fmt17h664a485ddf8ec4b6E
libvulkan_nouveau.so:_ZN106_$LT$nvidia_headers..nvh_classes_cl902d_mthd..SetMmeShadowScratch$u20$as$u20$nvidia_headers..ArrayMthd$GT$4addr17hf4fa5c3e8cce1db3E
libvulkan_nouveau.so:_ZN106_$LT$nvidia_headers..nvh_classes_cl9039_mthd..SetMmeShadowScratch$u20$as$u20$nvidia_headers..ArrayMthd$GT$4addr17hcc82c739d980b6d1E
libvulkan_nouveau.so:_ZN106_$LT$nvidia_headers..nvh_classes_cl90c0_mthd..SetMmeShadowScratch$u20$as$u20$nvidia_headers..ArrayMthd$GT$4addr17hbc6c07ac47e54b72E
libvulkan_nouveau.so:_ZN106_$LT$nvidia_headers..nvh_classes_cla040_mthd..SetMmeShadowScratch$u20$as$u20$nvidia_headers..ArrayMthd$GT$4addr17h326a871a34cb5f52E
libvulkan_nouveau.so:_ZN106_$LT$nvidia_headers..nvh_classes_cla097_mthd..SetColorCompression$u20$as$u20$nvidia_headers..ArrayMthd$GT$4addr17h566e322ced7d2ebfE
libvulkan_nouveau.so:_ZN106_$LT$nvidia_headers..nvh_classes_cla097_mthd..SetColorTargetLayer$u20$as$u20$nvidia_headers..ArrayMthd$GT$4addr17h1c89978e40bbf354E
libvulkan_nouveau.so:_ZN106_$LT$nvidia_headers..nvh_classes_cla097_mthd..SetColorTargetWidth$u20$as$u20$nvidia_headers..ArrayMthd$GT$4addr17h66067c905f98ef20E
libvulkan_nouveau.so:_ZN106_$LT$nvidia_headers..nvh_classes_cla097_mthd..SetMmeShadowScratch$u20$as$u20$nvidia_headers..ArrayMthd$GT$4addr17h59086889f7abbfd8E
libvulkan_nouveau.so:_ZN106_$LT$nvidia_headers..nvh_classes_cla097_mthd..SetVertexAttributeA$u20$as$u20$nvidia_headers..ArrayMthd$GT$4addr17hf373daf2230ef617E
libvulkan_nouveau.so:_ZN106_$LT$nvidia_headers..nvh_classes_cla097_mthd..SetVertexAttributeB$u20$as$u20$nvidia_headers..ArrayMthd$GT$4addr17hb474023c32b2b61cE
libvulkan_nouveau.so:_ZN106_$LT$nvidia_headers..nvh_classes_cla097_mthd..SetViewportClipMaxZ$u20$as$u20$nvidia_headers..ArrayMthd$GT$4addr17h7b90eb0c84335f2eE
libvulkan_nouveau.so:_ZN106_$LT$nvidia_headers..nvh_classes_cla097_mthd..SetViewportClipMinZ$u20$as$u20$nvidia_headers..ArrayMthd$GT$4addr17hb35fc132d3e0dbc3E
libvulkan_nouveau.so:_ZN106_$LT$nvidia_headers..nvh_classes_cla0c0_mthd..SetMmeShadowScratch$u20$as$u20$nvidia_headers..ArrayMthd$GT$4addr17hc7dbb4c0f36e0054E
libvulkan_nouveau.so:_ZN106_$LT$nvidia_headers..nvh_classes_cla140_mthd..SetMmeShadowScratch$u20$as$u20$nvidia_headers..ArrayMthd$GT$4addr17hf2ce5e720ed0cf2eE
libvulkan_nouveau.so:_ZN106_$LT$nvidia_headers..nvh_classes_clb097_mthd..SetColorCompression$u20$as$u20$nvidia_headers..ArrayMthd$GT$4addr17hc21cbd264bc4b5dcE
libvulkan_nouveau.so:_ZN106_$LT$nvidia_headers..nvh_classes_clb097_mthd..SetColorTargetLayer$u20$as$u20$nvidia_headers..ArrayMthd$GT$4addr17h6b9ecc00e448df35E
libvulkan_nouveau.so:_ZN106_$LT$nvidia_headers..nvh_classes_clb097_mthd..SetColorTargetWidth$u20$as$u20$nvidia_headers..ArrayMthd$GT$4addr17h29208cc86052362fE
libvulkan_nouveau.so:_ZN106_$LT$nvidia_headers..nvh_classes_clb097_mthd..SetMmeShadowScratch$u20$as$u20$nvidia_headers..ArrayMthd$GT$4addr17h24e63cb5f53a7f43E
libvulkan_nouveau.so:_ZN106_$LT$nvidia_headers..nvh_classes_clb097_mthd..SetVertexAttributeA$u20$as$u20$nvidia_headers..ArrayMthd$GT$4addr17h4eda07620a2c04e0E
libvulkan_nouveau.so:_ZN106_$LT$nvidia_headers..nvh_classes_clb097_mthd..SetVertexAttributeB$u20$as$u20$nvidia_headers..ArrayMthd$GT$4addr17hd0f1df30b958a1e3E
libvulkan_nouveau.so:_ZN106_$LT$nvidia_headers..nvh_classes_clb097_mthd..SetViewportClipMaxZ$u20$as$u20$nvidia_headers..ArrayMthd$GT$4addr17h26021ad1ae091e7bE
libvulkan_nouveau.so:_ZN106_$LT$nvidia_headers..nvh_classes_clb097_mthd..SetViewportClipMinZ$u20$as$u20$nvidia_headers..ArrayMthd$GT$4addr17hed90bae72aba5ec5E
libvulkan_nouveau.so:_ZN106_$LT$nvidia_headers..nvh_classes_clb0c0_mthd..SetMmeShadowScratch$u20$as$u20$nvidia_headers..ArrayMthd$GT$4addr17he35f2537cab9356aE
libvulkan_nouveau.so:_ZN106_$LT$nvidia_headers..nvh_classes_clb197_mthd..SetColorCompression$u20$as$u20$nvidia_headers..ArrayMthd$GT$4addr17hae0e283c5371a8d7E
libvulkan_nouveau.so:_ZN106_$LT$nvidia_headers..nvh_classes_clb197_mthd..SetColorTargetLayer$u20$as$u20$nvidia_headers..ArrayMthd$GT$4addr17h2ce9665059a2e0ddE
libvulkan_nouveau.so:_ZN106_$LT$nvidia_headers..nvh_classes_clb197_mthd..SetColorTargetWidth$u20$as$u20$nvidia_headers..ArrayMthd$GT$4addr17h828af52c889824b2E
libvulkan_nouveau.so:_ZN106_$LT$nvidia_headers..nvh_classes_clb197_mthd..SetMmeShadowScratch$u20$as$u20$nvidia_headers..ArrayMthd$GT$4addr17haee4e84aa0575bafE
libvulkan_nouveau.so:_ZN106_$LT$nvidia_headers..nvh_classes_clb197_mthd..SetVertexAttributeA$u20$as$u20$nvidia_headers..ArrayMthd$GT$4addr17h5bd60c24739f5f8eE
libvulkan_nouveau.so:_ZN106_$LT$nvidia_headers..nvh_classes_clb197_mthd..SetVertexAttributeB$u20$as$u20$nvidia_headers..ArrayMthd$GT$4addr17h772f393d53db78bdE
libvulkan_nouveau.so:_ZN106_$LT$nvidia_headers..nvh_classes_clb197_mthd..SetViewportClipMaxZ$u20$as$u20$nvidia_headers..ArrayMthd$GT$4addr17h253d2d5efdf68962E
libvulkan_nouveau.so:_ZN106_$LT$nvidia_headers..nvh_classes_clb197_mthd..SetViewportClipMinZ$u20$as$u20$nvidia_headers..ArrayMthd$GT$4addr17hd1649c5621730f0eE
libvulkan_nouveau.so:_ZN106_$LT$nvidia_headers..nvh_classes_clb1c0_mthd..SetMmeShadowScratch$u20$as$u20$nvidia_headers..ArrayMthd$GT$4addr17h3f440e31a0052a0eE
libvulkan_nouveau.so:_ZN106_$LT$nvidia_headers..nvh_classes_clc097_mthd..SetColorCompression$u20$as$u20$nvidia_headers..ArrayMthd$GT$4addr17hc04c36cbebe06e4fE
libvulkan_nouveau.so:_ZN106_$LT$nvidia_headers..nvh_classes_clc097_mthd..SetColorTargetLayer$u20$as$u20$nvidia_headers..ArrayMthd$GT$4addr17hb0b195f91b4a4410E
libvulkan_nouveau.so:_ZN106_$LT$nvidia_headers..nvh_classes_clc097_mthd..SetColorTargetWidth$u20$as$u20$nvidia_headers..ArrayMthd$GT$4addr17h489c97afdb440f2bE
libvulkan_nouveau.so:_ZN106_$LT$nvidia_headers..nvh_classes_clc097_mthd..SetMmeShadowScratch$u20$as$u20$nvidia_headers..ArrayMthd$GT$4addr17hab004b02ca6cbc20E
libvulkan_nouveau.so:_ZN106_$LT$nvidia_headers..nvh_classes_clc097_mthd..SetVertexAttributeA$u20$as$u20$nvidia_headers..ArrayMthd$GT$4addr17hf772083d59b5ccb0E
libvulkan_nouveau.so:_ZN106_$LT$nvidia_headers..nvh_classes_clc097_mthd..SetVertexAttributeB$u20$as$u20$nvidia_headers..ArrayMthd$GT$4addr17h704d79825b45e288E
libvulkan_nouveau.so:_ZN106_$LT$nvidia_headers..nvh_classes_clc097_mthd..SetViewportClipMaxZ$u20$as$u20$nvidia_headers..ArrayMthd$GT$4addr17h4a64b5f578f1a363E
libvulkan_nouveau.so:_ZN106_$LT$nvidia_headers..nvh_classes_clc097_mthd..SetViewportClipMinZ$u20$as$u20$nvidia_headers..ArrayMthd$GT$4addr17h4e1ce0f540f6e496E
libvulkan_nouveau.so:_ZN106_$LT$nvidia_headers..nvh_classes_clc0c0_mthd..SetMmeShadowScratch$u20$as$u20$nvidia_headers..ArrayMthd$GT$4addr17h13b339af0253ae7eE
libvulkan_nouveau.so:_ZN106_$LT$nvidia_headers..nvh_classes_clc397_mthd..SetColorCompression$u20$as$u20$nvidia_headers..ArrayMthd$GT$4addr17ha7645a6765c5609aE
libvulkan_nouveau.so:_ZN106_$LT$nvidia_headers..nvh_classes_clc397_mthd..SetColorTargetLayer$u20$as$u20$nvidia_headers..ArrayMthd$GT$4addr17h5659f37975360091E
libvulkan_nouveau.so:_ZN106_$LT$nvidia_headers..nvh_classes_clc397_mthd..SetColorTargetWidth$u20$as$u20$nvidia_headers..ArrayMthd$GT$4addr17h84ba582a887832b3E
libvulkan_nouveau.so:_ZN106_$LT$nvidia_headers..nvh_classes_clc397_mthd..SetMmeShadowScratch$u20$as$u20$nvidia_headers..ArrayMthd$GT$4addr17h2a3dae49b2f482bfE
libvulkan_nouveau.so:_ZN106_$LT$nvidia_headers..nvh_classes_clc397_mthd..SetVertexAttributeA$u20$as$u20$nvidia_headers..ArrayMthd$GT$4addr17hc1e60175dfc94ee1E
libvulkan_nouveau.so:_ZN106_$LT$nvidia_headers..nvh_classes_clc397_mthd..SetVertexAttributeB$u20$as$u20$nvidia_headers..ArrayMthd$GT$4addr17h2f1ebb4dd809282dE
libvulkan_nouveau.so:_ZN106_$LT$nvidia_headers..nvh_classes_clc397_mthd..SetViewportClipMaxZ$u20$as$u20$nvidia_headers..ArrayMthd$GT$4addr17h38fd4a1fbe29b4aeE
libvulkan_nouveau.so:_ZN106_$LT$nvidia_headers..nvh_classes_clc397_mthd..SetViewportClipMinZ$u20$as$u20$nvidia_headers..ArrayMthd$GT$4addr17h4350129fb11d9eedE
libvulkan_nouveau.so:_ZN106_$LT$nvidia_headers..nvh_classes_clc3c0_mthd..SetMmeShadowScratch$u20$as$u20$nvidia_headers..ArrayMthd$GT$4addr17h6a6c14e3fef818a7E
libvulkan_nouveau.so:_ZN106_$LT$nvidia_headers..nvh_classes_clc5c0_mthd..SetMmeShadowScratch$u20$as$u20$nvidia_headers..ArrayMthd$GT$4addr17h55317dbd6c341107E
libvulkan_nouveau.so:_ZN106_$LT$nvidia_headers..nvh_classes_clc6c0_mthd..SetMmeShadowScratch$u20$as$u20$nvidia_headers..ArrayMthd$GT$4addr17hd0fa8b3340c0f76dE
libvulkan_nouveau.so:_ZN106_$LT$nvidia_headers..nvh_classes_clc797_mthd..SetColorCompression$u20$as$u20$nvidia_headers..ArrayMthd$GT$4addr17h3eb8d2c23761188bE
libvulkan_nouveau.so:_ZN106_$LT$nvidia_headers..nvh_classes_clc797_mthd..SetColorTargetLayer$u20$as$u20$nvidia_headers..ArrayMthd$GT$4addr17hab24ab276a2b1f35E
libvulkan_nouveau.so:_ZN106_$LT$nvidia_headers..nvh_classes_clc797_mthd..SetColorTargetWidth$u20$as$u20$nvidia_headers..ArrayMthd$GT$4addr17hf01330da057755e1E
libvulkan_nouveau.so:_ZN106_$LT$nvidia_headers..nvh_classes_clc797_mthd..SetMmeShadowScratch$u20$as$u20$nvidia_headers..ArrayMthd$GT$4addr17h6ae6d8bd2689e82aE
libvulkan_nouveau.so:_ZN106_$LT$nvidia_headers..nvh_classes_clc797_mthd..SetVertexAttributeA$u20$as$u20$nvidia_headers..ArrayMthd$GT$4addr17h402b4dd19152acdcE
libvulkan_nouveau.so:_ZN106_$LT$nvidia_headers..nvh_classes_clc797_mthd..SetVertexAttributeB$u20$as$u20$nvidia_headers..ArrayMthd$GT$4addr17had6e5f91aab60f18E
libvulkan_nouveau.so:_ZN106_$LT$nvidia_headers..nvh_classes_clc797_mthd..SetViewportClipMaxZ$u20$as$u20$nvidia_headers..ArrayMthd$GT$4addr17hd46ac382b0ba0dd7E
libvulkan_nouveau.so:_ZN106_$LT$nvidia_headers..nvh_classes_clc797_mthd..SetViewportClipMinZ$u20$as$u20$nvidia_headers..ArrayMthd$GT$4addr17h413235e1f0d2757dE
libvulkan_nouveau.so:_ZN106_$LT$nvidia_headers..nvh_classes_clc7c0_mthd..SetMmeShadowScratch$u20$as$u20$nvidia_headers..ArrayMthd$GT$4addr17hdf76f7d719395549E
libvulkan_nouveau.so:_ZN107_$LT$nvidia_headers..nvh_classes_cl902d_mthd..ColorPatternX1R5G5B5$u20$as$u20$nvidia_headers..ArrayMthd$GT$4addr17h0880e2b5d0848428E
libvulkan_nouveau.so:_ZN107_$LT$nvidia_headers..nvh_classes_cl902d_mthd..ColorPatternX8R8G8B8$u20$as$u20$nvidia_headers..ArrayMthd$GT$4addr17hc12c6e792dd85c88E
libvulkan_nouveau.so:_ZN107_$LT$nvidia_headers..nvh_classes_cla097_mthd..SetColorTargetFormat$u20$as$u20$nvidia_headers..ArrayMthd$GT$4addr17h6844db150e5a7512E
libvulkan_nouveau.so:_ZN107_$LT$nvidia_headers..nvh_classes_cla097_mthd..SetColorTargetHeight$u20$as$u20$nvidia_headers..ArrayMthd$GT$4addr17h59fad48cc3f60572E
libvulkan_nouveau.so:_ZN107_$LT$nvidia_headers..nvh_classes_cla097_mthd..SetColorTargetMemory$u20$as$u20$nvidia_headers..ArrayMthd$GT$4addr17hce4f595e21f116ffE
libvulkan_nouveau.so:_ZN107_$LT$nvidia_headers..nvh_classes_cla097_mthd..SetPipelineReservedA$u20$as$u20$nvidia_headers..ArrayMthd$GT$4addr17hdc9c6a515f0ef95cE
libvulkan_nouveau.so:_ZN107_$LT$nvidia_headers..nvh_classes_cla097_mthd..SetPipelineReservedB$u20$as$u20$nvidia_headers..ArrayMthd$GT$4addr17ha53fa32e4c91c151E
libvulkan_nouveau.so:_ZN107_$LT$nvidia_headers..nvh_classes_cla097_mthd..SetPipelineReservedC$u20$as$u20$nvidia_headers..ArrayMthd$GT$4addr17h03acb61b546853b3E
libvulkan_nouveau.so:_ZN107_$LT$nvidia_headers..nvh_classes_cla097_mthd..SetPipelineReservedD$u20$as$u20$nvidia_headers..ArrayMthd$GT$4addr17h0de846f547dca994E
libvulkan_nouveau.so:_ZN107_$LT$nvidia_headers..nvh_classes_cla097_mthd..SetPipelineReservedE$u20$as$u20$nvidia_headers..ArrayMthd$GT$4addr17h4d7d5ec6c36f46dcE
libvulkan_nouveau.so:_ZN107_$LT$nvidia_headers..nvh_classes_cla097_mthd..SetScissorHorizontal$u20$as$u20$nvidia_headers..ArrayMthd$GT$4addr17h7e84eee638b8052aE
libvulkan_nouveau.so:_ZN107_$LT$nvidia_headers..nvh_classes_clb097_mthd..SetColorTargetFormat$u20$as$u20$nvidia_headers..ArrayMthd$GT$4addr17hdfc7859d4fc90677E
libvulkan_nouveau.so:_ZN107_$LT$nvidia_headers..nvh_classes_clb097_mthd..SetColorTargetHeight$u20$as$u20$nvidia_headers..ArrayMthd$GT$4addr17h8a71d957ff54a0fcE
libvulkan_nouveau.so:_ZN107_$LT$nvidia_headers..nvh_classes_clb097_mthd..SetColorTargetMemory$u20$as$u20$nvidia_headers..ArrayMthd$GT$4addr17h2c1d58615ded8d7bE
libvulkan_nouveau.so:_ZN107_$LT$nvidia_headers..nvh_classes_clb097_mthd..SetPipelineReservedA$u20$as$u20$nvidia_headers..ArrayMthd$GT$4addr17h2a1ad3d56de0b4b3E
libvulkan_nouveau.so:_ZN107_$LT$nvidia_headers..nvh_classes_clb097_mthd..SetPipelineReservedB$u20$as$u20$nvidia_headers..ArrayMthd$GT$4addr17h37689a9e37a2d002E
libvulkan_nouveau.so:_ZN107_$LT$nvidia_headers..nvh_classes_clb097_mthd..SetPipelineReservedC$u20$as$u20$nvidia_headers..ArrayMthd$GT$4addr17h4d4d116cac850b8dE
libvulkan_nouveau.so:_ZN107_$LT$nvidia_headers..nvh_classes_clb097_mthd..SetPipelineReservedD$u20$as$u20$nvidia_headers..ArrayMthd$GT$4addr17hb792660939364b81E
libvulkan_nouveau.so:_ZN107_$LT$nvidia_headers..nvh_classes_clb097_mthd..SetPipelineReservedE$u20$as$u20$nvidia_headers..ArrayMthd$GT$4addr17h39d956f8b69c826fE
libvulkan_nouveau.so:_ZN107_$LT$nvidia_headers..nvh_classes_clb097_mthd..SetScissorHorizontal$u20$as$u20$nvidia_headers..ArrayMthd$GT$4addr17h82798a1df0ca3860E
libvulkan_nouveau.so:_ZN107_$LT$nvidia_headers..nvh_classes_clb197_mthd..SetColorTargetFormat$u20$as$u20$nvidia_headers..ArrayMthd$GT$4addr17h80b71f2fec4d4403E
libvulkan_nouveau.so:_ZN107_$LT$nvidia_headers..nvh_classes_clb197_mthd..SetColorTargetHeight$u20$as$u20$nvidia_headers..ArrayMthd$GT$4addr17h2c96ebbccd11698cE
libvulkan_nouveau.so:_ZN107_$LT$nvidia_headers..nvh_classes_clb197_mthd..SetColorTargetMemory$u20$as$u20$nvidia_headers..ArrayMthd$GT$4addr17ha3a5822bd15d7f8fE
libvulkan_nouveau.so:_ZN107_$LT$nvidia_headers..nvh_classes_clb197_mthd..SetPipelineReservedA$u20$as$u20$nvidia_headers..ArrayMthd$GT$4addr17h16bdae9eb1b32994E
libvulkan_nouveau.so:_ZN107_$LT$nvidia_headers..nvh_classes_clb197_mthd..SetPipelineReservedB$u20$as$u20$nvidia_headers..ArrayMthd$GT$4addr17hd178515da3245344E
libvulkan_nouveau.so:_ZN107_$LT$nvidia_headers..nvh_classes_clb197_mthd..SetPipelineReservedC$u20$as$u20$nvidia_headers..ArrayMthd$GT$4addr17h0c7de231c7837448E
libvulkan_nouveau.so:_ZN107_$LT$nvidia_headers..nvh_classes_clb197_mthd..SetPipelineReservedD$u20$as$u20$nvidia_headers..ArrayMthd$GT$4addr17h7a9255f7d5745febE
libvulkan_nouveau.so:_ZN107_$LT$nvidia_headers..nvh_classes_clb197_mthd..SetPipelineReservedE$u20$as$u20$nvidia_headers..ArrayMthd$GT$4addr17h1862ab2617aeb6ddE
libvulkan_nouveau.so:_ZN107_$LT$nvidia_headers..nvh_classes_clb197_mthd..SetScissorHorizontal$u20$as$u20$nvidia_headers..ArrayMthd$GT$4addr17hdc140c00f224e1d4E
libvulkan_nouveau.so:_ZN107_$LT$nvidia_headers..nvh_classes_clc097_mthd..SetColorTargetFormat$u20$as$u20$nvidia_headers..ArrayMthd$GT$4addr17h345bbe5d4e7912feE
libvulkan_nouveau.so:_ZN107_$LT$nvidia_headers..nvh_classes_clc097_mthd..SetColorTargetHeight$u20$as$u20$nvidia_headers..ArrayMthd$GT$4addr17h701eed2af12cc01cE
libvulkan_nouveau.so:_ZN107_$LT$nvidia_headers..nvh_classes_clc097_mthd..SetColorTargetMemory$u20$as$u20$nvidia_headers..ArrayMthd$GT$4addr17hd8f081b857267ee9E
libvulkan_nouveau.so:_ZN107_$LT$nvidia_headers..nvh_classes_clc097_mthd..SetPipelineReservedA$u20$as$u20$nvidia_headers..ArrayMthd$GT$4addr17h0674c31b7fb1ab07E
libvulkan_nouveau.so:_ZN107_$LT$nvidia_headers..nvh_classes_clc097_mthd..SetPipelineReservedB$u20$as$u20$nvidia_headers..ArrayMthd$GT$4addr17heaf0a976a54900b8E
libvulkan_nouveau.so:_ZN107_$LT$nvidia_headers..nvh_classes_clc097_mthd..SetPipelineReservedC$u20$as$u20$nvidia_headers..ArrayMthd$GT$4addr17h0003897630387be3E
libvulkan_nouveau.so:_ZN107_$LT$nvidia_headers..nvh_classes_clc097_mthd..SetPipelineReservedD$u20$as$u20$nvidia_headers..ArrayMthd$GT$4addr17h03362197412eefcfE
libvulkan_nouveau.so:_ZN107_$LT$nvidia_headers..nvh_classes_clc097_mthd..SetPipelineReservedE$u20$as$u20$nvidia_headers..ArrayMthd$GT$4addr17hfa9f4f75e6f09e32E
libvulkan_nouveau.so:_ZN107_$LT$nvidia_headers..nvh_classes_clc097_mthd..SetScissorHorizontal$u20$as$u20$nvidia_headers..ArrayMthd$GT$4addr17h65bf26855a37319eE
libvulkan_nouveau.so:_ZN107_$LT$nvidia_headers..nvh_classes_clc397_mthd..SetColorTargetFormat$u20$as$u20$nvidia_headers..ArrayMthd$GT$4addr17h81a1a989102b0c5fE
libvulkan_nouveau.so:_ZN107_$LT$nvidia_headers..nvh_classes_clc397_mthd..SetColorTargetHeight$u20$as$u20$nvidia_headers..ArrayMthd$GT$4addr17h9a15896716980e75E
libvulkan_nouveau.so:_ZN107_$LT$nvidia_headers..nvh_classes_clc397_mthd..SetColorTargetMemory$u20$as$u20$nvidia_headers..ArrayMthd$GT$4addr17h84d9f7ffc3b623ddE
libvulkan_nouveau.so:_ZN107_$LT$nvidia_headers..nvh_classes_clc397_mthd..SetPipelineReservedA$u20$as$u20$nvidia_headers..ArrayMthd$GT$4addr17h5ae9ef8374ca4335E
libvulkan_nouveau.so:_ZN107_$LT$nvidia_headers..nvh_classes_clc397_mthd..SetPipelineReservedD$u20$as$u20$nvidia_headers..ArrayMthd$GT$4addr17hf59e16b9e09bdd3aE
libvulkan_nouveau.so:_ZN107_$LT$nvidia_headers..nvh_classes_clc397_mthd..SetPipelineReservedE$u20$as$u20$nvidia_headers..ArrayMthd$GT$4addr17h82208a7dfd7652c5E
libvulkan_nouveau.so:_ZN107_$LT$nvidia_headers..nvh_classes_clc397_mthd..SetScissorHorizontal$u20$as$u20$nvidia_headers..ArrayMthd$GT$4addr17hc0dbdf94156d9379E
libvulkan_nouveau.so:_ZN107_$LT$nvidia_headers..nvh_classes_clc797_mthd..SetColorTargetFormat$u20$as$u20$nvidia_headers..ArrayMthd$GT$4addr17hb377cd94dedd51c2E
libvulkan_nouveau.so:_ZN107_$LT$nvidia_headers..nvh_classes_clc797_mthd..SetColorTargetHeight$u20$as$u20$nvidia_headers..ArrayMthd$GT$4addr17hefb67663c2ec81d8E
libvulkan_nouveau.so:_ZN107_$LT$nvidia_headers..nvh_classes_clc797_mthd..SetColorTargetMemory$u20$as$u20$nvidia_headers..ArrayMthd$GT$4addr17hdeeeeddc8005e97cE
libvulkan_nouveau.so:_ZN107_$LT$nvidia_headers..nvh_classes_clc797_mthd..SetPipelineReservedA$u20$as$u20$nvidia_headers..ArrayMthd$GT$4addr17h2a2644df19480f59E
libvulkan_nouveau.so:_ZN107_$LT$nvidia_headers..nvh_classes_clc797_mthd..SetPipelineReservedB$u20$as$u20$nvidia_headers..ArrayMthd$GT$4addr17h723d516ee16b1f00E
libvulkan_nouveau.so:_ZN107_$LT$nvidia_headers..nvh_classes_clc797_mthd..SetPipelineReservedE$u20$as$u20$nvidia_headers..ArrayMthd$GT$4addr17hb6cb3df911b3268aE
libvulkan_nouveau.so:_ZN107_$LT$nvidia_headers..nvh_classes_clc797_mthd..SetScissorHorizontal$u20$as$u20$nvidia_headers..ArrayMthd$GT$4addr17h18a8d31dffa5c2f2E
libvulkan_nouveau.so:_ZN107_$LT$nvidia_headers..nvh_classes_clc797_mthd..SetVertexStreamSizeA$u20$as$u20$nvidia_headers..ArrayMthd$GT$4addr17hb5a12eb69b458b7eE
libvulkan_nouveau.so:_ZN107_$LT$nvidia_headers..nvh_classes_clc797_mthd..SetVertexStreamSizeB$u20$as$u20$nvidia_headers..ArrayMthd$GT$4addr17hda9ae3ee91bc8541E
libvulkan_nouveau.so:_ZN107_$LT$object..read..pe..relocation..RelocationIterator$u20$as$u20$core..iter..traits..iterator..Iterator$GT$4next17hec12017d5cefd07aE
libvulkan_nouveau.so:_ZN108_$LT$nvidia_headers..nvh_classes_cl902d_mthd..RenderSolidPrimPointY$u20$as$u20$nvidia_headers..ArrayMthd$GT$4addr17h30224e3beba9319eE
libvulkan_nouveau.so:_ZN108_$LT$nvidia_headers..nvh_classes_cl90c0_mthd..SetSuLdStTargetFormat$u20$as$u20$nvidia_headers..ArrayMthd$GT$4addr17h3dfba4cef91c9313E
libvulkan_nouveau.so:_ZN108_$LT$nvidia_headers..nvh_classes_cla097_mthd..SetWindowClipVertical$u20$as$u20$nvidia_headers..ArrayMthd$GT$4addr17h1e1c5ad739fc6e80E
libvulkan_nouveau.so:_ZN108_$LT$nvidia_headers..nvh_classes_clb097_mthd..SetWindowClipVertical$u20$as$u20$nvidia_headers..ArrayMthd$GT$4addr17h43c01ebb6feb8c0eE
libvulkan_nouveau.so:_ZN108_$LT$nvidia_headers..nvh_classes_clb197_mthd..SetWindowClipVertical$u20$as$u20$nvidia_headers..ArrayMthd$GT$4addr17ha842e3da140f796fE
libvulkan_nouveau.so:_ZN108_$LT$nvidia_headers..nvh_classes_clc097_mthd..SetWindowClipVertical$u20$as$u20$nvidia_headers..ArrayMthd$GT$4addr17h4ec040c2bb64a079E
libvulkan_nouveau.so:_ZN108_$LT$nvidia_headers..nvh_classes_clc397_mthd..SetWindowClipVertical$u20$as$u20$nvidia_headers..ArrayMthd$GT$4addr17h05f72ab230340478E
libvulkan_nouveau.so:_ZN108_$LT$nvidia_headers..nvh_classes_clc797_mthd..SetWindowClipVertical$u20$as$u20$nvidia_headers..ArrayMthd$GT$4addr17h90fcacf267d65427E
libvulkan_nouveau.so:_ZN109_$LT$nvidia_headers..nvh_classes_cla097_mthd..SetLineSmoothEdgeTable$u20$as$u20$nvidia_headers..ArrayMthd$GT$4addr17hdea39bc105557922E
libvulkan_nouveau.so:_ZN109_$LT$nvidia_headers..nvh_classes_cla097_mthd..SetStreamOutBufferSize$u20$as$u20$nvidia_headers..ArrayMthd$GT$4addr17hcc170d961ec739a5E
libvulkan_nouveau.so:_ZN109_$LT$nvidia_headers..nvh_classes_cla097_mthd..SetVertexStreamAFormat$u20$as$u20$nvidia_headers..ArrayMthd$GT$4addr17h9932c9da12c5be33E
libvulkan_nouveau.so:_ZN109_$LT$nvidia_headers..nvh_classes_cla097_mthd..SetVertexStreamBFormat$u20$as$u20$nvidia_headers..ArrayMthd$GT$4addr17hc0f0ff6d16a3065fE
libvulkan_nouveau.so:_ZN109_$LT$nvidia_headers..nvh_classes_cla097_mthd..SetVertexStreamLimitAA$u20$as$u20$nvidia_headers..ArrayMthd$GT$4addr17h4912433af7687f41E
libvulkan_nouveau.so:_ZN109_$LT$nvidia_headers..nvh_classes_cla097_mthd..SetVertexStreamLimitAB$u20$as$u20$nvidia_headers..ArrayMthd$GT$4addr17h09fc9ebe5066978eE
libvulkan_nouveau.so:_ZN109_$LT$nvidia_headers..nvh_classes_cla097_mthd..SetVertexStreamLimitBA$u20$as$u20$nvidia_headers..ArrayMthd$GT$4addr17hcbc0270cf04c3c72E
libvulkan_nouveau.so:_ZN109_$LT$nvidia_headers..nvh_classes_cla097_mthd..SetVertexStreamLimitBB$u20$as$u20$nvidia_headers..ArrayMthd$GT$4addr17hdcebac14f4f9a667E
libvulkan_nouveau.so:_ZN109_$LT$nvidia_headers..nvh_classes_clb097_mthd..SetLineSmoothEdgeTable$u20$as$u20$nvidia_headers..ArrayMthd$GT$4addr17hde352d319e4c60f8E
libvulkan_nouveau.so:_ZN109_$LT$nvidia_headers..nvh_classes_clb097_mthd..SetStreamOutBufferSize$u20$as$u20$nvidia_headers..ArrayMthd$GT$4addr17h612752da24ea00c5E
libvulkan_nouveau.so:_ZN109_$LT$nvidia_headers..nvh_classes_clb097_mthd..SetVertexStreamAFormat$u20$as$u20$nvidia_headers..ArrayMthd$GT$4addr17hf4b2e22c60507036E
libvulkan_nouveau.so:_ZN109_$LT$nvidia_headers..nvh_classes_clb097_mthd..SetVertexStreamBFormat$u20$as$u20$nvidia_headers..ArrayMthd$GT$4addr17h597e5f72608e3aa2E
libvulkan_nouveau.so:_ZN109_$LT$nvidia_headers..nvh_classes_clb097_mthd..SetVertexStreamLimitAA$u20$as$u20$nvidia_headers..ArrayMthd$GT$4addr17h10f47a2a6586289dE
libvulkan_nouveau.so:_ZN109_$LT$nvidia_headers..nvh_classes_clb097_mthd..SetVertexStreamLimitAB$u20$as$u20$nvidia_headers..ArrayMthd$GT$4addr17h9e64686ef1142593E
libvulkan_nouveau.so:_ZN109_$LT$nvidia_headers..nvh_classes_clb097_mthd..SetVertexStreamLimitBA$u20$as$u20$nvidia_headers..ArrayMthd$GT$4addr17h050156211ead9bc3E
libvulkan_nouveau.so:_ZN109_$LT$nvidia_headers..nvh_classes_clb097_mthd..SetVertexStreamLimitBB$u20$as$u20$nvidia_headers..ArrayMthd$GT$4addr17h75eeea91ddba8a48E
libvulkan_nouveau.so:_ZN109_$LT$nvidia_headers..nvh_classes_clb197_mthd..SetLineSmoothEdgeTable$u20$as$u20$nvidia_headers..ArrayMthd$GT$4addr17he1bfdfab60e03ea4E
libvulkan_nouveau.so:_ZN109_$LT$nvidia_headers..nvh_classes_clb197_mthd..SetStreamOutBufferSize$u20$as$u20$nvidia_headers..ArrayMthd$GT$4addr17h600199b293b83bd6E
libvulkan_nouveau.so:_ZN109_$LT$nvidia_headers..nvh_classes_clb197_mthd..SetVertexStreamAFormat$u20$as$u20$nvidia_headers..ArrayMthd$GT$4addr17h942367e600b5430cE
libvulkan_nouveau.so:_ZN109_$LT$nvidia_headers..nvh_classes_clb197_mthd..SetVertexStreamBFormat$u20$as$u20$nvidia_headers..ArrayMthd$GT$4addr17h9f96c96433243c81E
libvulkan_nouveau.so:_ZN109_$LT$nvidia_headers..nvh_classes_clb197_mthd..SetVertexStreamLimitAA$u20$as$u20$nvidia_headers..ArrayMthd$GT$4addr17haec03291e862e491E
libvulkan_nouveau.so:_ZN109_$LT$nvidia_headers..nvh_classes_clb197_mthd..SetVertexStreamLimitAB$u20$as$u20$nvidia_headers..ArrayMthd$GT$4addr17hc379215dd888b33aE
libvulkan_nouveau.so:_ZN109_$LT$nvidia_headers..nvh_classes_clb197_mthd..SetVertexStreamLimitBA$u20$as$u20$nvidia_headers..ArrayMthd$GT$4addr17h2bff12e2d163b8bbE
libvulkan_nouveau.so:_ZN109_$LT$nvidia_headers..nvh_classes_clb197_mthd..SetVertexStreamLimitBB$u20$as$u20$nvidia_headers..ArrayMthd$GT$4addr17h19ff1aebb141d05cE
libvulkan_nouveau.so:_ZN109_$LT$nvidia_headers..nvh_classes_clc097_mthd..SetLineSmoothEdgeTable$u20$as$u20$nvidia_headers..ArrayMthd$GT$4addr17h45ef5a2174bce713E
libvulkan_nouveau.so:_ZN109_$LT$nvidia_headers..nvh_classes_clc097_mthd..SetStreamOutBufferSize$u20$as$u20$nvidia_headers..ArrayMthd$GT$4addr17h23f9a8c21d97b34aE
libvulkan_nouveau.so:_ZN109_$LT$nvidia_headers..nvh_classes_clc097_mthd..SetVertexStreamAFormat$u20$as$u20$nvidia_headers..ArrayMthd$GT$4addr17hfbcc67def6e79571E
libvulkan_nouveau.so:_ZN109_$LT$nvidia_headers..nvh_classes_clc097_mthd..SetVertexStreamBFormat$u20$as$u20$nvidia_headers..ArrayMthd$GT$4addr17h57c74b975ed61292E
libvulkan_nouveau.so:_ZN109_$LT$nvidia_headers..nvh_classes_clc097_mthd..SetVertexStreamLimitAA$u20$as$u20$nvidia_headers..ArrayMthd$GT$4addr17hda1b98dcbd03ebb2E
libvulkan_nouveau.so:_ZN109_$LT$nvidia_headers..nvh_classes_clc097_mthd..SetVertexStreamLimitAB$u20$as$u20$nvidia_headers..ArrayMthd$GT$4addr17hf56f8d446ac2ddfdE
libvulkan_nouveau.so:_ZN109_$LT$nvidia_headers..nvh_classes_clc097_mthd..SetVertexStreamLimitBA$u20$as$u20$nvidia_headers..ArrayMthd$GT$4addr17hdf4417cc97f5370fE
libvulkan_nouveau.so:_ZN109_$LT$nvidia_headers..nvh_classes_clc097_mthd..SetVertexStreamLimitBB$u20$as$u20$nvidia_headers..ArrayMthd$GT$4addr17h5e8adccc48cc40d4E
libvulkan_nouveau.so:_ZN109_$LT$nvidia_headers..nvh_classes_clc397_mthd..SetLineSmoothEdgeTable$u20$as$u20$nvidia_headers..ArrayMthd$GT$4addr17h7764b3816f2b7ae5E
libvulkan_nouveau.so:_ZN109_$LT$nvidia_headers..nvh_classes_clc397_mthd..SetStreamOutBufferSize$u20$as$u20$nvidia_headers..ArrayMthd$GT$4addr17hb23715639a4f6a91E
libvulkan_nouveau.so:_ZN109_$LT$nvidia_headers..nvh_classes_clc397_mthd..SetVertexStreamAFormat$u20$as$u20$nvidia_headers..ArrayMthd$GT$4addr17h926d157fe727b3f0E
libvulkan_nouveau.so:_ZN109_$LT$nvidia_headers..nvh_classes_clc397_mthd..SetVertexStreamBFormat$u20$as$u20$nvidia_headers..ArrayMthd$GT$4addr17hd29003393a84c155E
libvulkan_nouveau.so:_ZN109_$LT$nvidia_headers..nvh_classes_clc397_mthd..SetVertexStreamLimitAA$u20$as$u20$nvidia_headers..ArrayMthd$GT$4addr17h60bd77c792ebebc0E
libvulkan_nouveau.so:_ZN109_$LT$nvidia_headers..nvh_classes_clc397_mthd..SetVertexStreamLimitAB$u20$as$u20$nvidia_headers..ArrayMthd$GT$4addr17h1ce373004ae349c4E
libvulkan_nouveau.so:_ZN109_$LT$nvidia_headers..nvh_classes_clc397_mthd..SetVertexStreamLimitBA$u20$as$u20$nvidia_headers..ArrayMthd$GT$4addr17hce16c2edf8ef55a5E
libvulkan_nouveau.so:_ZN109_$LT$nvidia_headers..nvh_classes_clc397_mthd..SetVertexStreamLimitBB$u20$as$u20$nvidia_headers..ArrayMthd$GT$4addr17hb3abeec458e66f55E
libvulkan_nouveau.so:_ZN109_$LT$nvidia_headers..nvh_classes_clc797_mthd..SetLineSmoothEdgeTable$u20$as$u20$nvidia_headers..ArrayMthd$GT$4addr17ha5ac827b370a059bE
libvulkan_nouveau.so:_ZN109_$LT$nvidia_headers..nvh_classes_clc797_mthd..SetRootTableVisibility$u20$as$u20$nvidia_headers..ArrayMthd$GT$4addr17h98f7b8e638ca8004E
libvulkan_nouveau.so:_ZN109_$LT$nvidia_headers..nvh_classes_clc797_mthd..SetStreamOutBufferSize$u20$as$u20$nvidia_headers..ArrayMthd$GT$4addr17hf0270b7a444e4f93E
libvulkan_nouveau.so:_ZN109_$LT$nvidia_headers..nvh_classes_clc797_mthd..SetVertexStreamAFormat$u20$as$u20$nvidia_headers..ArrayMthd$GT$4addr17h16c7df3bc871449aE
libvulkan_nouveau.so:_ZN109_$LT$nvidia_headers..nvh_classes_clc797_mthd..SetVertexStreamBFormat$u20$as$u20$nvidia_headers..ArrayMthd$GT$4addr17h26590c954fb99674E
libvulkan_nouveau.so:_ZN109_$LT$object..read..pe..import..ImportDescriptorIterator$u20$as$u20$core..iter..traits..iterator..Iterator$GT$4next17he944c6abbb0c511cE
libvulkan_nouveau.so:_ZN109_$LT$std..os..unix..net..datagram..UnixDatagram$u20$as$u20$std..os..net..linux_ext..socket..UnixSocketExt$GT$12set_passcred17hd1bd56e244463d70E
libvulkan_nouveau.so:_ZN109_$LT$std..os..unix..net..datagram..UnixDatagram$u20$as$u20$std..os..net..linux_ext..socket..UnixSocketExt$GT$8passcred17h9ad509a0434fbb04E
libvulkan_nouveau.so:_ZN110_$LT$nvidia_headers..nvh_classes_cla097_mthd..BindGroupConstantBuffer$u20$as$u20$nvidia_headers..ArrayMthd$GT$4addr17h3448d6d9744fd2fbE
libvulkan_nouveau.so:_ZN110_$LT$nvidia_headers..nvh_classes_cla097_mthd..SetViewportClipVertical$u20$as$u20$nvidia_headers..ArrayMthd$GT$4addr17h4f93c0d328db6213E
libvulkan_nouveau.so:_ZN110_$LT$nvidia_headers..nvh_classes_cla097_mthd..SetWindowClipHorizontal$u20$as$u20$nvidia_headers..ArrayMthd$GT$4addr17hb295b8f846964d4bE
libvulkan_nouveau.so:_ZN110_$LT$nvidia_headers..nvh_classes_clb097_mthd..BindGroupConstantBuffer$u20$as$u20$nvidia_headers..ArrayMthd$GT$4addr17ha311c00d9e044042E
libvulkan_nouveau.so:_ZN110_$LT$nvidia_headers..nvh_classes_clb097_mthd..SetViewportClipVertical$u20$as$u20$nvidia_headers..ArrayMthd$GT$4addr17h3af10131993de07fE
libvulkan_nouveau.so:_ZN110_$LT$nvidia_headers..nvh_classes_clb097_mthd..SetWindowClipHorizontal$u20$as$u20$nvidia_headers..ArrayMthd$GT$4addr17h710d78d72d46667dE
libvulkan_nouveau.so:_ZN110_$LT$nvidia_headers..nvh_classes_clb197_mthd..BindGroupConstantBuffer$u20$as$u20$nvidia_headers..ArrayMthd$GT$4addr17h50ce7980c9ad2171E
libvulkan_nouveau.so:_ZN110_$LT$nvidia_headers..nvh_classes_clb197_mthd..SetViewportClipVertical$u20$as$u20$nvidia_headers..ArrayMthd$GT$4addr17h58d5a765873b0116E
libvulkan_nouveau.so:_ZN110_$LT$nvidia_headers..nvh_classes_clb197_mthd..SetWindowClipHorizontal$u20$as$u20$nvidia_headers..ArrayMthd$GT$4addr17hba9577b3431152c3E
libvulkan_nouveau.so:_ZN110_$LT$nvidia_headers..nvh_classes_clc097_mthd..BindGroupConstantBuffer$u20$as$u20$nvidia_headers..ArrayMthd$GT$4addr17he5ae460006fca76bE
libvulkan_nouveau.so:_ZN110_$LT$nvidia_headers..nvh_classes_clc097_mthd..SetViewportClipVertical$u20$as$u20$nvidia_headers..ArrayMthd$GT$4addr17h24f9584120ae2c4dE
libvulkan_nouveau.so:_ZN110_$LT$nvidia_headers..nvh_classes_clc097_mthd..SetWindowClipHorizontal$u20$as$u20$nvidia_headers..ArrayMthd$GT$4addr17h7c3727848fa7a2c7E
libvulkan_nouveau.so:_ZN110_$LT$nvidia_headers..nvh_classes_clc397_mthd..BindGroupConstantBuffer$u20$as$u20$nvidia_headers..ArrayMthd$GT$4addr17h1927a881a5cc142aE
libvulkan_nouveau.so:_ZN110_$LT$nvidia_headers..nvh_classes_clc397_mthd..SetViewportClipVertical$u20$as$u20$nvidia_headers..ArrayMthd$GT$4addr17h42e20b6098aa50b7E
libvulkan_nouveau.so:_ZN110_$LT$nvidia_headers..nvh_classes_clc397_mthd..SetWindowClipHorizontal$u20$as$u20$nvidia_headers..ArrayMthd$GT$4addr17h11a42ad202b627f2E
libvulkan_nouveau.so:_ZN110_$LT$nvidia_headers..nvh_classes_clc797_mthd..BindGroupConstantBuffer$u20$as$u20$nvidia_headers..ArrayMthd$GT$4addr17h4d30bf8e14b3657aE
libvulkan_nouveau.so:_ZN110_$LT$nvidia_headers..nvh_classes_clc797_mthd..SetViewportClipVertical$u20$as$u20$nvidia_headers..ArrayMthd$GT$4addr17h4b03224ee9f5cfcbE
libvulkan_nouveau.so:_ZN110_$LT$nvidia_headers..nvh_classes_clc797_mthd..SetWindowClipHorizontal$u20$as$u20$nvidia_headers..ArrayMthd$GT$4addr17hdd7d3a0d2fbf1e2cE
libvulkan_nouveau.so:_ZN111_$LT$nvidia_headers..nvh_classes_cl902d_mthd..RenderSolidPrimPointSetX$u20$as$u20$nvidia_headers..ArrayMthd$GT$4addr17h2544422d86dd1f72E
libvulkan_nouveau.so:_ZN111_$LT$nvidia_headers..nvh_classes_cl90c0_mthd..SetSuLdStTargetBlockSize$u20$as$u20$nvidia_headers..ArrayMthd$GT$4addr17h83857b341a4d57b8E
libvulkan_nouveau.so:_ZN111_$LT$nvidia_headers..nvh_classes_cla097_mthd..SetBlendPerTargetAlphaOp$u20$as$u20$nvidia_headers..ArrayMthd$GT$4addr17h523a0d4b03caf414E
libvulkan_nouveau.so:_ZN111_$LT$nvidia_headers..nvh_classes_cla097_mthd..SetBlendPerTargetColorOp$u20$as$u20$nvidia_headers..ArrayMthd$GT$4addr17hbebba6ea8dde38d7E
libvulkan_nouveau.so:_ZN111_$LT$nvidia_headers..nvh_classes_cla097_mthd..SetColorTargetArrayPitch$u20$as$u20$nvidia_headers..ArrayMthd$GT$4addr17h5d946d56e1bf5e47E
libvulkan_nouveau.so:_ZN111_$LT$nvidia_headers..nvh_classes_cla097_mthd..SetPipelineRegisterCount$u20$as$u20$nvidia_headers..ArrayMthd$GT$4addr17hfa2e2febdb40811aE
libvulkan_nouveau.so:_ZN111_$LT$nvidia_headers..nvh_classes_cla097_mthd..SetPolygonStipplePattern$u20$as$u20$nvidia_headers..ArrayMthd$GT$4addr17hfe02fe15b033ff7bE
libvulkan_nouveau.so:_ZN111_$LT$nvidia_headers..nvh_classes_cla097_mthd..SetStreamOutBufferEnable$u20$as$u20$nvidia_headers..ArrayMthd$GT$4addr17hcb751cba47549766E
libvulkan_nouveau.so:_ZN111_$LT$nvidia_headers..nvh_classes_cla097_mthd..SetVertexStreamInstanceA$u20$as$u20$nvidia_headers..ArrayMthd$GT$4addr17h49f3b7bc39e21310E
libvulkan_nouveau.so:_ZN111_$LT$nvidia_headers..nvh_classes_cla097_mthd..SetVertexStreamInstanceB$u20$as$u20$nvidia_headers..ArrayMthd$GT$4addr17h077fc4c10bea2956E
libvulkan_nouveau.so:_ZN111_$LT$nvidia_headers..nvh_classes_clb097_mthd..SetBlendPerTargetAlphaOp$u20$as$u20$nvidia_headers..ArrayMthd$GT$4addr17hddb97e67d4f75d15E
libvulkan_nouveau.so:_ZN111_$LT$nvidia_headers..nvh_classes_clb097_mthd..SetBlendPerTargetColorOp$u20$as$u20$nvidia_headers..ArrayMthd$GT$4addr17h957aad1cf09cc024E
libvulkan_nouveau.so:_ZN111_$LT$nvidia_headers..nvh_classes_clb097_mthd..SetColorTargetArrayPitch$u20$as$u20$nvidia_headers..ArrayMthd$GT$4addr17h8b15abe8c7e77d8eE
libvulkan_nouveau.so:_ZN111_$LT$nvidia_headers..nvh_classes_clb097_mthd..SetPipelineRegisterCount$u20$as$u20$nvidia_headers..ArrayMthd$GT$4addr17he602487f3649680aE
libvulkan_nouveau.so:_ZN111_$LT$nvidia_headers..nvh_classes_clb097_mthd..SetPolygonStipplePattern$u20$as$u20$nvidia_headers..ArrayMthd$GT$4addr17h90b87545cdbd93d1E
libvulkan_nouveau.so:_ZN111_$LT$nvidia_headers..nvh_classes_clb097_mthd..SetStreamOutBufferEnable$u20$as$u20$nvidia_headers..ArrayMthd$GT$4addr17h7d33564487b8b5fdE
libvulkan_nouveau.so:_ZN111_$LT$nvidia_headers..nvh_classes_clb097_mthd..SetVertexStreamInstanceA$u20$as$u20$nvidia_headers..ArrayMthd$GT$4addr17h1f0412128cff0132E
libvulkan_nouveau.so:_ZN111_$LT$nvidia_headers..nvh_classes_clb097_mthd..SetVertexStreamInstanceB$u20$as$u20$nvidia_headers..ArrayMthd$GT$4addr17h74298f9bcf89b0a4E
libvulkan_nouveau.so:_ZN111_$LT$nvidia_headers..nvh_classes_clb197_mthd..SetBlendPerTargetAlphaOp$u20$as$u20$nvidia_headers..ArrayMthd$GT$4addr17hd1cdc9a2d16bdd10E
libvulkan_nouveau.so:_ZN111_$LT$nvidia_headers..nvh_classes_clb197_mthd..SetBlendPerTargetColorOp$u20$as$u20$nvidia_headers..ArrayMthd$GT$4addr17h0137d9f1dc72c2d8E
libvulkan_nouveau.so:_ZN111_$LT$nvidia_headers..nvh_classes_clb197_mthd..SetColorTargetArrayPitch$u20$as$u20$nvidia_headers..ArrayMthd$GT$4addr17h1251b348b8b535f1E
libvulkan_nouveau.so:_ZN111_$LT$nvidia_headers..nvh_classes_clb197_mthd..SetPipelineRegisterCount$u20$as$u20$nvidia_headers..ArrayMthd$GT$4addr17h789eed75b56b847fE
libvulkan_nouveau.so:_ZN111_$LT$nvidia_headers..nvh_classes_clb197_mthd..SetPolygonStipplePattern$u20$as$u20$nvidia_headers..ArrayMthd$GT$4addr17ha55db7c3bbd847eeE
libvulkan_nouveau.so:_ZN111_$LT$nvidia_headers..nvh_classes_clb197_mthd..SetStreamOutBufferEnable$u20$as$u20$nvidia_headers..ArrayMthd$GT$4addr17h008660ed32313fe7E
libvulkan_nouveau.so:_ZN111_$LT$nvidia_headers..nvh_classes_clb197_mthd..SetVertexStreamInstanceA$u20$as$u20$nvidia_headers..ArrayMthd$GT$4addr17h120f8319848cd3deE
libvulkan_nouveau.so:_ZN111_$LT$nvidia_headers..nvh_classes_clb197_mthd..SetVertexStreamInstanceB$u20$as$u20$nvidia_headers..ArrayMthd$GT$4addr17ha466ffa25221c908E
libvulkan_nouveau.so:_ZN111_$LT$nvidia_headers..nvh_classes_clc097_mthd..SetBlendPerTargetAlphaOp$u20$as$u20$nvidia_headers..ArrayMthd$GT$4addr17he6e920d75f523ce9E
libvulkan_nouveau.so:_ZN111_$LT$nvidia_headers..nvh_classes_clc097_mthd..SetBlendPerTargetColorOp$u20$as$u20$nvidia_headers..ArrayMthd$GT$4addr17hc23c405b1d263ebdE
libvulkan_nouveau.so:_ZN111_$LT$nvidia_headers..nvh_classes_clc097_mthd..SetColorTargetArrayPitch$u20$as$u20$nvidia_headers..ArrayMthd$GT$4addr17h2c1ddf4a93f34348E
libvulkan_nouveau.so:_ZN111_$LT$nvidia_headers..nvh_classes_clc097_mthd..SetPipelineRegisterCount$u20$as$u20$nvidia_headers..ArrayMthd$GT$4addr17h70a26623ba25a53bE
libvulkan_nouveau.so:_ZN111_$LT$nvidia_headers..nvh_classes_clc097_mthd..SetPolygonStipplePattern$u20$as$u20$nvidia_headers..ArrayMthd$GT$4addr17h370365773dd338d4E
libvulkan_nouveau.so:_ZN111_$LT$nvidia_headers..nvh_classes_clc097_mthd..SetStreamOutBufferEnable$u20$as$u20$nvidia_headers..ArrayMthd$GT$4addr17h4175ed1062d725d0E
libvulkan_nouveau.so:_ZN111_$LT$nvidia_headers..nvh_classes_clc097_mthd..SetVertexStreamInstanceA$u20$as$u20$nvidia_headers..ArrayMthd$GT$4addr17hb3dd2dca427d8f94E
libvulkan_nouveau.so:_ZN111_$LT$nvidia_headers..nvh_classes_clc097_mthd..SetVertexStreamInstanceB$u20$as$u20$nvidia_headers..ArrayMthd$GT$4addr17hf842df0ab1643ae0E
libvulkan_nouveau.so:_ZN111_$LT$nvidia_headers..nvh_classes_clc397_mthd..SetBlendPerTargetAlphaOp$u20$as$u20$nvidia_headers..ArrayMthd$GT$4addr17h181d044c3f008d8cE
libvulkan_nouveau.so:_ZN111_$LT$nvidia_headers..nvh_classes_clc397_mthd..SetBlendPerTargetColorOp$u20$as$u20$nvidia_headers..ArrayMthd$GT$4addr17h73e941d03abaa742E
libvulkan_nouveau.so:_ZN111_$LT$nvidia_headers..nvh_classes_clc397_mthd..SetColorTargetArrayPitch$u20$as$u20$nvidia_headers..ArrayMthd$GT$4addr17hfae038edc698b881E
libvulkan_nouveau.so:_ZN111_$LT$nvidia_headers..nvh_classes_clc397_mthd..SetPipelineRegisterCount$u20$as$u20$nvidia_headers..ArrayMthd$GT$4addr17h1ac7e1fd01a324f3E
libvulkan_nouveau.so:_ZN111_$LT$nvidia_headers..nvh_classes_clc397_mthd..SetPolygonStipplePattern$u20$as$u20$nvidia_headers..ArrayMthd$GT$4addr17hb2eadbe3eb1286a6E
libvulkan_nouveau.so:_ZN111_$LT$nvidia_headers..nvh_classes_clc397_mthd..SetStreamOutBufferEnable$u20$as$u20$nvidia_headers..ArrayMthd$GT$4addr17h2e07a8adbda83892E
libvulkan_nouveau.so:_ZN111_$LT$nvidia_headers..nvh_classes_clc397_mthd..SetVertexStreamInstanceA$u20$as$u20$nvidia_headers..ArrayMthd$GT$4addr17h75d5d00873f83f26E
libvulkan_nouveau.so:_ZN111_$LT$nvidia_headers..nvh_classes_clc397_mthd..SetVertexStreamInstanceB$u20$as$u20$nvidia_headers..ArrayMthd$GT$4addr17ha2ef9f8de61da66eE
libvulkan_nouveau.so:_ZN111_$LT$nvidia_headers..nvh_classes_clc797_mthd..SetBlendPerTargetAlphaOp$u20$as$u20$nvidia_headers..ArrayMthd$GT$4addr17he659df94458c4ae7E
libvulkan_nouveau.so:_ZN111_$LT$nvidia_headers..nvh_classes_clc797_mthd..SetBlendPerTargetColorOp$u20$as$u20$nvidia_headers..ArrayMthd$GT$4addr17h46e637603c4ca914E
libvulkan_nouveau.so:_ZN111_$LT$nvidia_headers..nvh_classes_clc797_mthd..SetColorTargetArrayPitch$u20$as$u20$nvidia_headers..ArrayMthd$GT$4addr17h3f9007af2b218294E
libvulkan_nouveau.so:_ZN111_$LT$nvidia_headers..nvh_classes_clc797_mthd..SetPipelineRegisterCount$u20$as$u20$nvidia_headers..ArrayMthd$GT$4addr17h164264be336034e9E
libvulkan_nouveau.so:_ZN111_$LT$nvidia_headers..nvh_classes_clc797_mthd..SetPolygonStipplePattern$u20$as$u20$nvidia_headers..ArrayMthd$GT$4addr17h9c2124d9146d672dE
libvulkan_nouveau.so:_ZN111_$LT$nvidia_headers..nvh_classes_clc797_mthd..SetStreamOutBufferEnable$u20$as$u20$nvidia_headers..ArrayMthd$GT$4addr17ha9817d8ce7186995E
libvulkan_nouveau.so:_ZN111_$LT$nvidia_headers..nvh_classes_clc797_mthd..SetVertexStreamInstanceA$u20$as$u20$nvidia_headers..ArrayMthd$GT$4addr17hf89bb8820444cf5dE
libvulkan_nouveau.so:_ZN111_$LT$nvidia_headers..nvh_classes_clc797_mthd..SetVertexStreamInstanceB$u20$as$u20$nvidia_headers..ArrayMthd$GT$4addr17h988a29e6cacb8290E
libvulkan_nouveau.so:_ZN111_$LT$std..io..buffered..bufwriter..BufWriter$LT$W$GT$..flush_buf..BufGuard$u20$as$u20$core..ops..drop..Drop$GT$4drop17h6fefcc7d8029b674E
libvulkan_nouveau.so:_ZN112_$LT$$LT$std..path..Components$u20$as$u20$core..fmt..Debug$GT$..fmt..DebugHelper$u20$as$u20$core..fmt..Debug$GT$3fmt17he6e9b790f2578b59E
libvulkan_nouveau.so:_ZN112_$LT$nvidia_headers..nvh_classes_cla097_mthd..SetStreamOutControlStream$u20$as$u20$nvidia_headers..ArrayMthd$GT$4addr17h1288c97d48b6695eE
libvulkan_nouveau.so:_ZN112_$LT$nvidia_headers..nvh_classes_cla097_mthd..SetStreamOutControlStride$u20$as$u20$nvidia_headers..ArrayMthd$GT$4addr17h8a7436515eab87edE
libvulkan_nouveau.so:_ZN112_$LT$nvidia_headers..nvh_classes_cla097_mthd..SetVertexStreamAFrequency$u20$as$u20$nvidia_headers..ArrayMthd$GT$4addr17hc4017edf6ed97137E
libvulkan_nouveau.so:_ZN112_$LT$nvidia_headers..nvh_classes_cla097_mthd..SetVertexStreamALocationA$u20$as$u20$nvidia_headers..ArrayMthd$GT$4addr17h59d64b34d1cee777E
libvulkan_nouveau.so:_ZN112_$LT$nvidia_headers..nvh_classes_cla097_mthd..SetVertexStreamALocationB$u20$as$u20$nvidia_headers..ArrayMthd$GT$4addr17h69af51cfa8838c1bE
libvulkan_nouveau.so:_ZN112_$LT$nvidia_headers..nvh_classes_cla097_mthd..SetVertexStreamBFrequency$u20$as$u20$nvidia_headers..ArrayMthd$GT$4addr17hdd882601a028ca34E
libvulkan_nouveau.so:_ZN112_$LT$nvidia_headers..nvh_classes_cla097_mthd..SetVertexStreamBLocationA$u20$as$u20$nvidia_headers..ArrayMthd$GT$4addr17h6a00934f167e6d67E
libvulkan_nouveau.so:_ZN112_$LT$nvidia_headers..nvh_classes_cla097_mthd..SetVertexStreamBLocationB$u20$as$u20$nvidia_headers..ArrayMthd$GT$4addr17h63eff266695e1d3cE
libvulkan_nouveau.so:_ZN112_$LT$nvidia_headers..nvh_classes_cla097_mthd..SetViewportClipHorizontal$u20$as$u20$nvidia_headers..ArrayMthd$GT$4addr17h83af6ff92a6928a5E
libvulkan_nouveau.so:_ZN112_$LT$nvidia_headers..nvh_classes_clb097_mthd..SetStreamOutControlStream$u20$as$u20$nvidia_headers..ArrayMthd$GT$4addr17hbfacb3e5a568acd1E
libvulkan_nouveau.so:_ZN112_$LT$nvidia_headers..nvh_classes_clb097_mthd..SetStreamOutControlStride$u20$as$u20$nvidia_headers..ArrayMthd$GT$4addr17hd5ccf887b35798a2E
libvulkan_nouveau.so:_ZN112_$LT$nvidia_headers..nvh_classes_clb097_mthd..SetVertexStreamAFrequency$u20$as$u20$nvidia_headers..ArrayMthd$GT$4addr17h653a6561da48b8ccE
libvulkan_nouveau.so:_ZN112_$LT$nvidia_headers..nvh_classes_clb097_mthd..SetVertexStreamALocationA$u20$as$u20$nvidia_headers..ArrayMthd$GT$4addr17h9aa1e54c2a20ed35E
libvulkan_nouveau.so:_ZN112_$LT$nvidia_headers..nvh_classes_clb097_mthd..SetVertexStreamALocationB$u20$as$u20$nvidia_headers..ArrayMthd$GT$4addr17ha3b1ab28c27f2b05E
libvulkan_nouveau.so:_ZN112_$LT$nvidia_headers..nvh_classes_clb097_mthd..SetVertexStreamBFrequency$u20$as$u20$nvidia_headers..ArrayMthd$GT$4addr17h895dfdc3ed99a197E
libvulkan_nouveau.so:_ZN112_$LT$nvidia_headers..nvh_classes_clb097_mthd..SetVertexStreamBLocationA$u20$as$u20$nvidia_headers..ArrayMthd$GT$4addr17h7b867e28cff73683E
libvulkan_nouveau.so:_ZN112_$LT$nvidia_headers..nvh_classes_clb097_mthd..SetVertexStreamBLocationB$u20$as$u20$nvidia_headers..ArrayMthd$GT$4addr17h1866c46fef7ac0c2E
libvulkan_nouveau.so:_ZN112_$LT$nvidia_headers..nvh_classes_clb097_mthd..SetViewportClipHorizontal$u20$as$u20$nvidia_headers..ArrayMthd$GT$4addr17h4a6f0b85d171c727E
libvulkan_nouveau.so:_ZN112_$LT$nvidia_headers..nvh_classes_clb197_mthd..SetStreamOutControlStream$u20$as$u20$nvidia_headers..ArrayMthd$GT$4addr17h595750abdd128404E
libvulkan_nouveau.so:_ZN112_$LT$nvidia_headers..nvh_classes_clb197_mthd..SetStreamOutControlStride$u20$as$u20$nvidia_headers..ArrayMthd$GT$4addr17h5b9db9f571eb9de5E
libvulkan_nouveau.so:_ZN112_$LT$nvidia_headers..nvh_classes_clb197_mthd..SetVertexStreamAFrequency$u20$as$u20$nvidia_headers..ArrayMthd$GT$4addr17he18187e10e304000E
libvulkan_nouveau.so:_ZN112_$LT$nvidia_headers..nvh_classes_clb197_mthd..SetVertexStreamALocationA$u20$as$u20$nvidia_headers..ArrayMthd$GT$4addr17hf6a763ff9d2d00e8E
libvulkan_nouveau.so:_ZN112_$LT$nvidia_headers..nvh_classes_clb197_mthd..SetVertexStreamALocationB$u20$as$u20$nvidia_headers..ArrayMthd$GT$4addr17h8a114215cb2c6f09E
libvulkan_nouveau.so:_ZN112_$LT$nvidia_headers..nvh_classes_clb197_mthd..SetVertexStreamBFrequency$u20$as$u20$nvidia_headers..ArrayMthd$GT$4addr17he85e2227f3b6a356E
libvulkan_nouveau.so:_ZN112_$LT$nvidia_headers..nvh_classes_clb197_mthd..SetVertexStreamBLocationA$u20$as$u20$nvidia_headers..ArrayMthd$GT$4addr17h5ff9131a7c17ef21E
libvulkan_nouveau.so:_ZN112_$LT$nvidia_headers..nvh_classes_clb197_mthd..SetVertexStreamBLocationB$u20$as$u20$nvidia_headers..ArrayMthd$GT$4addr17he87552269a37bfe7E
libvulkan_nouveau.so:_ZN112_$LT$nvidia_headers..nvh_classes_clb197_mthd..SetViewportClipHorizontal$u20$as$u20$nvidia_headers..ArrayMthd$GT$4addr17h27dde10beb56d90dE
libvulkan_nouveau.so:_ZN112_$LT$nvidia_headers..nvh_classes_clc097_mthd..SetStreamOutControlStream$u20$as$u20$nvidia_headers..ArrayMthd$GT$4addr17hb71c4d10e5ddebbdE
libvulkan_nouveau.so:_ZN112_$LT$nvidia_headers..nvh_classes_clc097_mthd..SetStreamOutControlStride$u20$as$u20$nvidia_headers..ArrayMthd$GT$4addr17h4f0dace439dc81eaE
libvulkan_nouveau.so:_ZN112_$LT$nvidia_headers..nvh_classes_clc097_mthd..SetVertexStreamAFrequency$u20$as$u20$nvidia_headers..ArrayMthd$GT$4addr17h36b5ac0f2e693adeE
libvulkan_nouveau.so:_ZN112_$LT$nvidia_headers..nvh_classes_clc097_mthd..SetVertexStreamALocationA$u20$as$u20$nvidia_headers..ArrayMthd$GT$4addr17hde55dfb801502944E
libvulkan_nouveau.so:_ZN112_$LT$nvidia_headers..nvh_classes_clc097_mthd..SetVertexStreamALocationB$u20$as$u20$nvidia_headers..ArrayMthd$GT$4addr17h42afe8e2ac07bef9E
libvulkan_nouveau.so:_ZN112_$LT$nvidia_headers..nvh_classes_clc097_mthd..SetVertexStreamBFrequency$u20$as$u20$nvidia_headers..ArrayMthd$GT$4addr17hd9ee58099db01a80E
libvulkan_nouveau.so:_ZN112_$LT$nvidia_headers..nvh_classes_clc097_mthd..SetVertexStreamBLocationA$u20$as$u20$nvidia_headers..ArrayMthd$GT$4addr17hb1b63264c13b6724E
libvulkan_nouveau.so:_ZN112_$LT$nvidia_headers..nvh_classes_clc097_mthd..SetVertexStreamBLocationB$u20$as$u20$nvidia_headers..ArrayMthd$GT$4addr17h33fba393f6a15bd6E
libvulkan_nouveau.so:_ZN112_$LT$nvidia_headers..nvh_classes_clc097_mthd..SetViewportClipHorizontal$u20$as$u20$nvidia_headers..ArrayMthd$GT$4addr17ha981d8291f889b73E
libvulkan_nouveau.so:_ZN112_$LT$nvidia_headers..nvh_classes_clc397_mthd..SetStreamOutControlStream$u20$as$u20$nvidia_headers..ArrayMthd$GT$4addr17h998888014f89d382E
libvulkan_nouveau.so:_ZN112_$LT$nvidia_headers..nvh_classes_clc397_mthd..SetStreamOutControlStride$u20$as$u20$nvidia_headers..ArrayMthd$GT$4addr17haf62cb53cb72dfebE
libvulkan_nouveau.so:_ZN112_$LT$nvidia_headers..nvh_classes_clc397_mthd..SetVertexStreamAFrequency$u20$as$u20$nvidia_headers..ArrayMthd$GT$4addr17h3e558b332d7116ccE
libvulkan_nouveau.so:_ZN112_$LT$nvidia_headers..nvh_classes_clc397_mthd..SetVertexStreamALocationA$u20$as$u20$nvidia_headers..ArrayMthd$GT$4addr17h1c61c36545da2a75E
libvulkan_nouveau.so:_ZN112_$LT$nvidia_headers..nvh_classes_clc397_mthd..SetVertexStreamALocationB$u20$as$u20$nvidia_headers..ArrayMthd$GT$4addr17h7da54b98c09747ebE
libvulkan_nouveau.so:_ZN112_$LT$nvidia_headers..nvh_classes_clc397_mthd..SetVertexStreamBFrequency$u20$as$u20$nvidia_headers..ArrayMthd$GT$4addr17h8e7b6144a632f67bE
libvulkan_nouveau.so:_ZN112_$LT$nvidia_headers..nvh_classes_clc397_mthd..SetVertexStreamBLocationA$u20$as$u20$nvidia_headers..ArrayMthd$GT$4addr17h559fa624164899dfE
libvulkan_nouveau.so:_ZN112_$LT$nvidia_headers..nvh_classes_clc397_mthd..SetVertexStreamBLocationB$u20$as$u20$nvidia_headers..ArrayMthd$GT$4addr17ha1e0a5a699a727bbE
libvulkan_nouveau.so:_ZN112_$LT$nvidia_headers..nvh_classes_clc397_mthd..SetViewportClipHorizontal$u20$as$u20$nvidia_headers..ArrayMthd$GT$4addr17hfbb371995f73ff27E
libvulkan_nouveau.so:_ZN112_$LT$nvidia_headers..nvh_classes_clc797_mthd..SetStreamOutControlStream$u20$as$u20$nvidia_headers..ArrayMthd$GT$4addr17hb62dfd9750fc4a8aE
libvulkan_nouveau.so:_ZN112_$LT$nvidia_headers..nvh_classes_clc797_mthd..SetStreamOutControlStride$u20$as$u20$nvidia_headers..ArrayMthd$GT$4addr17h6e6265e4b0d24250E
libvulkan_nouveau.so:_ZN112_$LT$nvidia_headers..nvh_classes_clc797_mthd..SetVertexStreamAFrequency$u20$as$u20$nvidia_headers..ArrayMthd$GT$4addr17he4c39d285d09e98cE
libvulkan_nouveau.so:_ZN112_$LT$nvidia_headers..nvh_classes_clc797_mthd..SetVertexStreamALocationA$u20$as$u20$nvidia_headers..ArrayMthd$GT$4addr17ha45e3779c960ab69E
libvulkan_nouveau.so:_ZN112_$LT$nvidia_headers..nvh_classes_clc797_mthd..SetVertexStreamALocationB$u20$as$u20$nvidia_headers..ArrayMthd$GT$4addr17h4e4cffac2a388a72E
libvulkan_nouveau.so:_ZN112_$LT$nvidia_headers..nvh_classes_clc797_mthd..SetVertexStreamBFrequency$u20$as$u20$nvidia_headers..ArrayMthd$GT$4addr17hb6b523d6872a8b22E
libvulkan_nouveau.so:_ZN112_$LT$nvidia_headers..nvh_classes_clc797_mthd..SetVertexStreamBLocationA$u20$as$u20$nvidia_headers..ArrayMthd$GT$4addr17h72179c305a3449dcE
libvulkan_nouveau.so:_ZN112_$LT$nvidia_headers..nvh_classes_clc797_mthd..SetVertexStreamBLocationB$u20$as$u20$nvidia_headers..ArrayMthd$GT$4addr17h43a0a9ea16645024E
libvulkan_nouveau.so:_ZN112_$LT$nvidia_headers..nvh_classes_clc797_mthd..SetViewportClipHorizontal$u20$as$u20$nvidia_headers..ArrayMthd$GT$4addr17h4fbc2bf1fb878f7eE
libvulkan_nouveau.so:_ZN112_$LT$object..read..elf..attributes..AttributeIndexIterator$u20$as$u20$core..iter..traits..iterator..Iterator$GT$4next17h2703cce9cc8d5666E
libvulkan_nouveau.so:_ZN112_$LT$object..read..pe..import..DelayLoadDescriptorIterator$u20$as$u20$core..iter..traits..iterator..Iterator$GT$4next17h071389d18bad0219E
libvulkan_nouveau.so:_ZN112_$LT$object..read..pe..relocation..RelocationBlockIterator$u20$as$u20$core..iter..traits..iterator..Iterator$GT$4next17h5f4be936ce1f8325E
libvulkan_nouveau.so:_ZN113_$LT$nvidia_headers..nvh_classes_cla097_mthd..SetStreamOutBufferAddressA$u20$as$u20$nvidia_headers..ArrayMthd$GT$4addr17h33ffb44d2c2545c7E
libvulkan_nouveau.so:_ZN113_$LT$nvidia_headers..nvh_classes_cla097_mthd..SetStreamOutBufferAddressB$u20$as$u20$nvidia_headers..ArrayMthd$GT$4addr17h2b6a64febdac9402E
libvulkan_nouveau.so:_ZN113_$LT$nvidia_headers..nvh_classes_clb097_mthd..SetStreamOutBufferAddressA$u20$as$u20$nvidia_headers..ArrayMthd$GT$4addr17hcf91060b38fb781aE
libvulkan_nouveau.so:_ZN113_$LT$nvidia_headers..nvh_classes_clb097_mthd..SetStreamOutBufferAddressB$u20$as$u20$nvidia_headers..ArrayMthd$GT$4addr17h607eada020c2df18E
libvulkan_nouveau.so:_ZN113_$LT$nvidia_headers..nvh_classes_clb197_mthd..SetStreamOutBufferAddressA$u20$as$u20$nvidia_headers..ArrayMthd$GT$4addr17hd3b8501eff376a05E
libvulkan_nouveau.so:_ZN113_$LT$nvidia_headers..nvh_classes_clb197_mthd..SetStreamOutBufferAddressB$u20$as$u20$nvidia_headers..ArrayMthd$GT$4addr17h58a1638c4593f1e3E
libvulkan_nouveau.so:_ZN113_$LT$nvidia_headers..nvh_classes_clc097_mthd..SetStreamOutBufferAddressA$u20$as$u20$nvidia_headers..ArrayMthd$GT$4addr17h42d733554a3fb06bE
libvulkan_nouveau.so:_ZN113_$LT$nvidia_headers..nvh_classes_clc097_mthd..SetStreamOutBufferAddressB$u20$as$u20$nvidia_headers..ArrayMthd$GT$4addr17h3a587f443810b271E
libvulkan_nouveau.so:_ZN113_$LT$nvidia_headers..nvh_classes_clc397_mthd..SetPipelineProgramAddressA$u20$as$u20$nvidia_headers..ArrayMthd$GT$4addr17hd1ca387a28da9b39E
libvulkan_nouveau.so:_ZN113_$LT$nvidia_headers..nvh_classes_clc397_mthd..SetPipelineProgramAddressB$u20$as$u20$nvidia_headers..ArrayMthd$GT$4addr17h67580b3d28fc2e0eE
libvulkan_nouveau.so:_ZN113_$LT$nvidia_headers..nvh_classes_clc397_mthd..SetStreamOutBufferAddressA$u20$as$u20$nvidia_headers..ArrayMthd$GT$4addr17he3e1ea962eae061bE
libvulkan_nouveau.so:_ZN113_$LT$nvidia_headers..nvh_classes_clc397_mthd..SetStreamOutBufferAddressB$u20$as$u20$nvidia_headers..ArrayMthd$GT$4addr17h87f3e0e10d8b150fE
libvulkan_nouveau.so:_ZN113_$LT$nvidia_headers..nvh_classes_clc797_mthd..SetColorTargetCRopSliceMap$u20$as$u20$nvidia_headers..ArrayMthd$GT$4addr17h34b4f8930c3a3b59E
libvulkan_nouveau.so:_ZN113_$LT$nvidia_headers..nvh_classes_clc797_mthd..SetPipelineProgramAddressA$u20$as$u20$nvidia_headers..ArrayMthd$GT$4addr17h1a05c619b4bfdf16E
libvulkan_nouveau.so:_ZN113_$LT$nvidia_headers..nvh_classes_clc797_mthd..SetPipelineProgramAddressB$u20$as$u20$nvidia_headers..ArrayMthd$GT$4addr17h3095d50ab51b33f3E
libvulkan_nouveau.so:_ZN113_$LT$nvidia_headers..nvh_classes_clc797_mthd..SetPipelineProgramPrefetch$u20$as$u20$nvidia_headers..ArrayMthd$GT$4addr17hc78a84a981119f27E
libvulkan_nouveau.so:_ZN113_$LT$nvidia_headers..nvh_classes_clc797_mthd..SetStreamOutBufferAddressA$u20$as$u20$nvidia_headers..ArrayMthd$GT$4addr17hbab4741fe62e9672E
libvulkan_nouveau.so:_ZN113_$LT$nvidia_headers..nvh_classes_clc797_mthd..SetStreamOutBufferAddressB$u20$as$u20$nvidia_headers..ArrayMthd$GT$4addr17h96175dfbb4a39736E
libvulkan_nouveau.so:_ZN114_$LT$nvidia_headers..nvh_classes_clb097_mthd..SetIteratedBlendConstantRed$u20$as$u20$nvidia_headers..ArrayMthd$GT$4addr17h14cf111a9a1b04d2E
libvulkan_nouveau.so:_ZN114_$LT$nvidia_headers..nvh_classes_clb197_mthd..SetAntiAliasSamplePositions$u20$as$u20$nvidia_headers..ArrayMthd$GT$4addr17he47c077c25980247E
libvulkan_nouveau.so:_ZN114_$LT$nvidia_headers..nvh_classes_clb197_mthd..SetIteratedBlendConstantRed$u20$as$u20$nvidia_headers..ArrayMthd$GT$4addr17h85be314f54013c68E
libvulkan_nouveau.so:_ZN114_$LT$nvidia_headers..nvh_classes_clc097_mthd..SetAntiAliasSamplePositions$u20$as$u20$nvidia_headers..ArrayMthd$GT$4addr17h74267bd30e25ae75E
libvulkan_nouveau.so:_ZN114_$LT$nvidia_headers..nvh_classes_clc097_mthd..SetIteratedBlendConstantRed$u20$as$u20$nvidia_headers..ArrayMthd$GT$4addr17h2a9b25d43350d8aeE
libvulkan_nouveau.so:_ZN114_$LT$nvidia_headers..nvh_classes_clc397_mthd..SetAntiAliasSamplePositions$u20$as$u20$nvidia_headers..ArrayMthd$GT$4addr17hf2e925d7c00a8664E
libvulkan_nouveau.so:_ZN114_$LT$nvidia_headers..nvh_classes_clc397_mthd..SetIteratedBlendConstantRed$u20$as$u20$nvidia_headers..ArrayMthd$GT$4addr17hbdf3ad3a918b4bc0E
libvulkan_nouveau.so:_ZN114_$LT$nvidia_headers..nvh_classes_clc797_mthd..SetAntiAliasSamplePositions$u20$as$u20$nvidia_headers..ArrayMthd$GT$4addr17hdcd01225c48e3e16E
libvulkan_nouveau.so:_ZN114_$LT$nvidia_headers..nvh_classes_clc797_mthd..SetIteratedBlendConstantRed$u20$as$u20$nvidia_headers..ArrayMthd$GT$4addr17h1c08385f2af9513dE
libvulkan_nouveau.so:_ZN114_$LT$std..backtrace_rs..symbolize..gimli..parse_running_mmaps..MapsEntry$u20$as$u20$core..str..traits..FromStr$GT$8from_str17he13f327e685b43caE
libvulkan_nouveau.so:_ZN115_$LT$nvidia_headers..nvh_classes_cla097_mthd..SetColorTargetThirdDimension$u20$as$u20$nvidia_headers..ArrayMthd$GT$4addr17h724b48685ed7967bE
libvulkan_nouveau.so:_ZN115_$LT$nvidia_headers..nvh_classes_clb097_mthd..SetColorTargetThirdDimension$u20$as$u20$nvidia_headers..ArrayMthd$GT$4addr17hb25dcbe5f2c59c96E
libvulkan_nouveau.so:_ZN115_$LT$nvidia_headers..nvh_classes_clb097_mthd..SetIteratedBlendConstantBlue$u20$as$u20$nvidia_headers..ArrayMthd$GT$4addr17h52c987d4868cc7eaE
libvulkan_nouveau.so:_ZN115_$LT$nvidia_headers..nvh_classes_clb197_mthd..SetColorTargetThirdDimension$u20$as$u20$nvidia_headers..ArrayMthd$GT$4addr17h97c0554fc25dcffcE
libvulkan_nouveau.so:_ZN115_$LT$nvidia_headers..nvh_classes_clb197_mthd..SetIteratedBlendConstantBlue$u20$as$u20$nvidia_headers..ArrayMthd$GT$4addr17h73d06bb3b55300b5E
libvulkan_nouveau.so:_ZN115_$LT$nvidia_headers..nvh_classes_clb197_mthd..SetViewportCoordinateSwizzle$u20$as$u20$nvidia_headers..ArrayMthd$GT$4addr17h0ab6225eae0e9532E
libvulkan_nouveau.so:_ZN115_$LT$nvidia_headers..nvh_classes_clc097_mthd..SetColorTargetThirdDimension$u20$as$u20$nvidia_headers..ArrayMthd$GT$4addr17h37a0e4f0968ef3e7E
libvulkan_nouveau.so:_ZN115_$LT$nvidia_headers..nvh_classes_clc097_mthd..SetIteratedBlendConstantBlue$u20$as$u20$nvidia_headers..ArrayMthd$GT$4addr17hb5d609e0cecf410cE
libvulkan_nouveau.so:_ZN115_$LT$nvidia_headers..nvh_classes_clc097_mthd..SetViewportCoordinateSwizzle$u20$as$u20$nvidia_headers..ArrayMthd$GT$4addr17hb7ee33a40ff945a6E
libvulkan_nouveau.so:_ZN115_$LT$nvidia_headers..nvh_classes_clc397_mthd..SetColorTargetThirdDimension$u20$as$u20$nvidia_headers..ArrayMthd$GT$4addr17hbb8455ce1506967dE
libvulkan_nouveau.so:_ZN115_$LT$nvidia_headers..nvh_classes_clc397_mthd..SetIteratedBlendConstantBlue$u20$as$u20$nvidia_headers..ArrayMthd$GT$4addr17h4b639f7ebf1b0cc1E
libvulkan_nouveau.so:_ZN115_$LT$nvidia_headers..nvh_classes_clc397_mthd..SetViewportCoordinateSwizzle$u20$as$u20$nvidia_headers..ArrayMthd$GT$4addr17h552f40b2fa12ad06E
libvulkan_nouveau.so:_ZN115_$LT$nvidia_headers..nvh_classes_clc797_mthd..SetColorTargetThirdDimension$u20$as$u20$nvidia_headers..ArrayMthd$GT$4addr17hf18dd69b4ccfb041E
libvulkan_nouveau.so:_ZN115_$LT$nvidia_headers..nvh_classes_clc797_mthd..SetIteratedBlendConstantBlue$u20$as$u20$nvidia_headers..ArrayMthd$GT$4addr17h89b9286e7fdffcfbE
libvulkan_nouveau.so:_ZN115_$LT$nvidia_headers..nvh_classes_clc797_mthd..SetViewportCoordinateSwizzle$u20$as$u20$nvidia_headers..ArrayMthd$GT$4addr17h74e7017f4d8cf4ebE
libvulkan_nouveau.so:_ZN116_$LT$core..net..ip_addr..Ipv4Addr$u20$as$u20$core..ops..bit..BitOrAssign$LT$$RF$core..net..ip_addr..Ipv4Addr$GT$$GT$12bitor_assign17hdd883c1f9c0f45a1E
libvulkan_nouveau.so:_ZN116_$LT$core..net..ip_addr..Ipv6Addr$u20$as$u20$core..ops..bit..BitOrAssign$LT$$RF$core..net..ip_addr..Ipv6Addr$GT$$GT$12bitor_assign17h87aa917168595f54E
libvulkan_nouveau.so:_ZN116_$LT$nvidia_headers..nvh_classes_cla097_mthd..SetDaOutputAttributeSkipMaskA$u20$as$u20$nvidia_headers..ArrayMthd$GT$4addr17hf388ca09c83ac82dE
libvulkan_nouveau.so:_ZN116_$LT$nvidia_headers..nvh_classes_cla097_mthd..SetDaOutputAttributeSkipMaskB$u20$as$u20$nvidia_headers..ArrayMthd$GT$4addr17h1c38dae9d0b1d75bE
libvulkan_nouveau.so:_ZN116_$LT$nvidia_headers..nvh_classes_clb097_mthd..SetDaOutputAttributeSkipMaskA$u20$as$u20$nvidia_headers..ArrayMthd$GT$4addr17he86e182b9d6b360eE
libvulkan_nouveau.so:_ZN116_$LT$nvidia_headers..nvh_classes_clb097_mthd..SetDaOutputAttributeSkipMaskB$u20$as$u20$nvidia_headers..ArrayMthd$GT$4addr17h20a99c6b971b4629E
libvulkan_nouveau.so:_ZN116_$LT$nvidia_headers..nvh_classes_clb097_mthd..SetIteratedBlendConstantGreen$u20$as$u20$nvidia_headers..ArrayMthd$GT$4addr17h9231cbb712cee0e2E
libvulkan_nouveau.so:_ZN116_$LT$nvidia_headers..nvh_classes_clb197_mthd..SetDaOutputAttributeSkipMaskA$u20$as$u20$nvidia_headers..ArrayMthd$GT$4addr17h4429b33c5078f033E
libvulkan_nouveau.so:_ZN116_$LT$nvidia_headers..nvh_classes_clb197_mthd..SetDaOutputAttributeSkipMaskB$u20$as$u20$nvidia_headers..ArrayMthd$GT$4addr17hb37bf2114306cb72E
libvulkan_nouveau.so:_ZN116_$LT$nvidia_headers..nvh_classes_clb197_mthd..SetIteratedBlendConstantGreen$u20$as$u20$nvidia_headers..ArrayMthd$GT$4addr17hce6808a51b50fc19E
libvulkan_nouveau.so:_ZN116_$LT$nvidia_headers..nvh_classes_clc097_mthd..SetDaOutputAttributeSkipMaskA$u20$as$u20$nvidia_headers..ArrayMthd$GT$4addr17h7622195ce2f0b0daE
libvulkan_nouveau.so:_ZN116_$LT$nvidia_headers..nvh_classes_clc097_mthd..SetDaOutputAttributeSkipMaskB$u20$as$u20$nvidia_headers..ArrayMthd$GT$4addr17h4c9d8a297fa9a2ceE
libvulkan_nouveau.so:_ZN116_$LT$nvidia_headers..nvh_classes_clc097_mthd..SetIteratedBlendConstantGreen$u20$as$u20$nvidia_headers..ArrayMthd$GT$4addr17h85b05d4d2d2285a6E
libvulkan_nouveau.so:_ZN116_$LT$nvidia_headers..nvh_classes_clc397_mthd..SetDaOutputAttributeSkipMaskA$u20$as$u20$nvidia_headers..ArrayMthd$GT$4addr17hdb0e98d563dbd736E
libvulkan_nouveau.so:_ZN116_$LT$nvidia_headers..nvh_classes_clc397_mthd..SetDaOutputAttributeSkipMaskB$u20$as$u20$nvidia_headers..ArrayMthd$GT$4addr17ha44a168d1d93dca5E
libvulkan_nouveau.so:_ZN116_$LT$nvidia_headers..nvh_classes_clc397_mthd..SetIteratedBlendConstantGreen$u20$as$u20$nvidia_headers..ArrayMthd$GT$4addr17h9165362290bd415bE
libvulkan_nouveau.so:_ZN116_$LT$nvidia_headers..nvh_classes_clc797_mthd..SetDaOutputAttributeSkipMaskA$u20$as$u20$nvidia_headers..ArrayMthd$GT$4addr17h39e0b13fec1a8598E
libvulkan_nouveau.so:_ZN116_$LT$nvidia_headers..nvh_classes_clc797_mthd..SetDaOutputAttributeSkipMaskB$u20$as$u20$nvidia_headers..ArrayMthd$GT$4addr17h6aeaec2a207c2a22E
libvulkan_nouveau.so:_ZN116_$LT$nvidia_headers..nvh_classes_clc797_mthd..SetIteratedBlendConstantGreen$u20$as$u20$nvidia_headers..ArrayMthd$GT$4addr17h7700c5f45fa6ec66E
libvulkan_nouveau.so:_ZN116_$LT$std..sys..pal..unix..process..process_common..CommandArgs$u20$as$u20$core..iter..traits..iterator..Iterator$GT$4next17h96966276140f81faE
libvulkan_nouveau.so:_ZN116_$LT$std..sys..pal..unix..process..process_common..CommandArgs$u20$as$u20$core..iter..traits..iterator..Iterator$GT$9size_hint17h170c43d08de93019E
libvulkan_nouveau.so:_ZN117_$LT$core..net..ip_addr..Ipv4Addr$u20$as$u20$core..ops..bit..BitAndAssign$LT$$RF$core..net..ip_addr..Ipv4Addr$GT$$GT$13bitand_assign17h88e1824fa84be510E
libvulkan_nouveau.so:_ZN117_$LT$core..net..ip_addr..Ipv6Addr$u20$as$u20$core..ops..bit..BitAndAssign$LT$$RF$core..net..ip_addr..Ipv6Addr$GT$$GT$13bitand_assign17h68e60be377889ad6E
libvulkan_nouveau.so:_ZN117_$LT$nvidia_headers..nvh_classes_clc397_mthd..SetPositionWScaledOffsetScaleA$u20$as$u20$nvidia_headers..ArrayMthd$GT$4addr17hd63f37702808bd3aE
libvulkan_nouveau.so:_ZN117_$LT$nvidia_headers..nvh_classes_clc397_mthd..SetPositionWScaledOffsetScaleB$u20$as$u20$nvidia_headers..ArrayMthd$GT$4addr17h4b618e35c0db6688E
libvulkan_nouveau.so:_ZN117_$LT$nvidia_headers..nvh_classes_clc797_mthd..SetPositionWScaledOffsetScaleA$u20$as$u20$nvidia_headers..ArrayMthd$GT$4addr17ha009dec29a7a071dE
libvulkan_nouveau.so:_ZN117_$LT$nvidia_headers..nvh_classes_clc797_mthd..SetPositionWScaledOffsetScaleB$u20$as$u20$nvidia_headers..ArrayMthd$GT$4addr17hf4acd976f2d1131dE
libvulkan_nouveau.so:_ZN118_$LT$nvidia_headers..nvh_classes_cla097_mthd..SetBlendPerTargetAlphaDestCoeff$u20$as$u20$nvidia_headers..ArrayMthd$GT$4addr17h47a1f26c2eb1c767E
libvulkan_nouveau.so:_ZN118_$LT$nvidia_headers..nvh_classes_cla097_mthd..SetBlendPerTargetColorDestCoeff$u20$as$u20$nvidia_headers..ArrayMthd$GT$4addr17hbc613749401abd3eE
libvulkan_nouveau.so:_ZN118_$LT$nvidia_headers..nvh_classes_clb097_mthd..SetBlendPerTargetAlphaDestCoeff$u20$as$u20$nvidia_headers..ArrayMthd$GT$4addr17h42878ebe71f1c451E
libvulkan_nouveau.so:_ZN118_$LT$nvidia_headers..nvh_classes_clb097_mthd..SetBlendPerTargetColorDestCoeff$u20$as$u20$nvidia_headers..ArrayMthd$GT$4addr17h4e36c9880502700fE
libvulkan_nouveau.so:_ZN118_$LT$nvidia_headers..nvh_classes_clb197_mthd..SetBlendPerTargetAlphaDestCoeff$u20$as$u20$nvidia_headers..ArrayMthd$GT$4addr17h7cf6425f2cf7557bE
libvulkan_nouveau.so:_ZN118_$LT$nvidia_headers..nvh_classes_clb197_mthd..SetBlendPerTargetColorDestCoeff$u20$as$u20$nvidia_headers..ArrayMthd$GT$4addr17h92c6bb480b6865e0E
libvulkan_nouveau.so:_ZN118_$LT$nvidia_headers..nvh_classes_clc097_mthd..SetBlendPerTargetAlphaDestCoeff$u20$as$u20$nvidia_headers..ArrayMthd$GT$4addr17ha9373b0d1346c7a2E
libvulkan_nouveau.so:_ZN118_$LT$nvidia_headers..nvh_classes_clc097_mthd..SetBlendPerTargetColorDestCoeff$u20$as$u20$nvidia_headers..ArrayMthd$GT$4addr17h3774833bf78886f8E
libvulkan_nouveau.so:_ZN118_$LT$nvidia_headers..nvh_classes_clc397_mthd..SetBlendPerTargetAlphaDestCoeff$u20$as$u20$nvidia_headers..ArrayMthd$GT$4addr17h8977901da45ae815E
libvulkan_nouveau.so:_ZN118_$LT$nvidia_headers..nvh_classes_clc397_mthd..SetBlendPerTargetColorDestCoeff$u20$as$u20$nvidia_headers..ArrayMthd$GT$4addr17hda9aba8b980682efE
libvulkan_nouveau.so:_ZN118_$LT$nvidia_headers..nvh_classes_clc797_mthd..SetBlendPerTargetAlphaDestCoeff$u20$as$u20$nvidia_headers..ArrayMthd$GT$4addr17hda3a7ac44eac51c8E
libvulkan_nouveau.so:_ZN118_$LT$nvidia_headers..nvh_classes_clc797_mthd..SetBlendPerTargetColorDestCoeff$u20$as$u20$nvidia_headers..ArrayMthd$GT$4addr17hdd82ec33b4fffbf2E
libvulkan_nouveau.so:_ZN118_$LT$nvidia_headers..nvh_classes_clc797_mthd..SetShadingRateIndexSurfaceLayer$u20$as$u20$nvidia_headers..ArrayMthd$GT$4addr17hf5baeb614d256f93E
libvulkan_nouveau.so:_ZN118_$LT$nvidia_headers..nvh_classes_clc797_mthd..SetShadingRateIndexSurfaceSizeA$u20$as$u20$nvidia_headers..ArrayMthd$GT$4addr17h29129149de1694e2E
libvulkan_nouveau.so:_ZN118_$LT$nvidia_headers..nvh_classes_clc797_mthd..SetShadingRateIndexSurfaceSizeB$u20$as$u20$nvidia_headers..ArrayMthd$GT$4addr17h1196ee80d6d13435E
libvulkan_nouveau.so:_ZN118_$LT$nvidia_headers..nvh_classes_clc797_mthd..SetVariablePixelRateSampleOrder$u20$as$u20$nvidia_headers..ArrayMthd$GT$4addr17h9016e3b2fcf55647E
libvulkan_nouveau.so:_ZN118_$LT$std..thread..thread_name_string..ThreadNameString$u20$as$u20$core..convert..From$LT$alloc..string..String$GT$$GT$4from17h126e3fd9fe370d7dE
libvulkan_nouveau.so:_ZN119_$LT$nvidia_headers..nvh_classes_cl90c0_mthd..SetShaderPerformanceCounterEvent$u20$as$u20$nvidia_headers..ArrayMthd$GT$4addr17h9125e32a564b22d7E
libvulkan_nouveau.so:_ZN119_$LT$nvidia_headers..nvh_classes_cl90c0_mthd..SetShaderPerformanceCounterValue$u20$as$u20$nvidia_headers..ArrayMthd$GT$4addr17he8c4d02dab54692cE
libvulkan_nouveau.so:_ZN119_$LT$nvidia_headers..nvh_classes_cla097_mthd..SetShaderPerformanceCounterEvent$u20$as$u20$nvidia_headers..ArrayMthd$GT$4addr17h40b341430335019dE
libvulkan_nouveau.so:_ZN119_$LT$nvidia_headers..nvh_classes_cla097_mthd..SetShaderPerformanceCounterValue$u20$as$u20$nvidia_headers..ArrayMthd$GT$4addr17h4bf6eb45ba78047dE
libvulkan_nouveau.so:_ZN119_$LT$nvidia_headers..nvh_classes_cla0c0_mthd..SetShaderPerformanceCounterEvent$u20$as$u20$nvidia_headers..ArrayMthd$GT$4addr17hfe8c825aa1fe8836E
libvulkan_nouveau.so:_ZN119_$LT$nvidia_headers..nvh_classes_cla0c0_mthd..SetShaderPerformanceCounterValue$u20$as$u20$nvidia_headers..ArrayMthd$GT$4addr17hf878020820e7b8caE
libvulkan_nouveau.so:_ZN119_$LT$nvidia_headers..nvh_classes_clb097_mthd..SetShaderPerformanceCounterEvent$u20$as$u20$nvidia_headers..ArrayMthd$GT$4addr17h4963b2abdd088a0dE
libvulkan_nouveau.so:_ZN119_$LT$nvidia_headers..nvh_classes_clb097_mthd..SetShaderPerformanceCounterValue$u20$as$u20$nvidia_headers..ArrayMthd$GT$4addr17hd51ba1a2bca4cfc4E
libvulkan_nouveau.so:_ZN119_$LT$nvidia_headers..nvh_classes_clb0c0_mthd..SetShaderPerformanceCounterEvent$u20$as$u20$nvidia_headers..ArrayMthd$GT$4addr17h2bcae16b2955382bE
libvulkan_nouveau.so:_ZN119_$LT$nvidia_headers..nvh_classes_clb0c0_mthd..SetShaderPerformanceCounterValue$u20$as$u20$nvidia_headers..ArrayMthd$GT$4addr17h77c9dacb9187b374E
libvulkan_nouveau.so:_ZN119_$LT$nvidia_headers..nvh_classes_clb197_mthd..SetShaderPerformanceCounterEvent$u20$as$u20$nvidia_headers..ArrayMthd$GT$4addr17h9772489789206635E
libvulkan_nouveau.so:_ZN119_$LT$nvidia_headers..nvh_classes_clb197_mthd..SetShaderPerformanceCounterValue$u20$as$u20$nvidia_headers..ArrayMthd$GT$4addr17hf5b129649d70518fE
libvulkan_nouveau.so:_ZN119_$LT$nvidia_headers..nvh_classes_clb197_mthd..SetTirModulationCoefficientTable$u20$as$u20$nvidia_headers..ArrayMthd$GT$4addr17h7e1be5040b49635bE
libvulkan_nouveau.so:_ZN119_$LT$nvidia_headers..nvh_classes_clb1c0_mthd..SetShaderPerformanceCounterEvent$u20$as$u20$nvidia_headers..ArrayMthd$GT$4addr17hd5e1e41a8dc96544E
libvulkan_nouveau.so:_ZN119_$LT$nvidia_headers..nvh_classes_clb1c0_mthd..SetShaderPerformanceCounterValue$u20$as$u20$nvidia_headers..ArrayMthd$GT$4addr17h8902f193e8860ed4E
libvulkan_nouveau.so:_ZN119_$LT$nvidia_headers..nvh_classes_clc097_mthd..SetShaderPerformanceCounterEvent$u20$as$u20$nvidia_headers..ArrayMthd$GT$4addr17hccfdeb1bd3d5f9c3E
libvulkan_nouveau.so:_ZN119_$LT$nvidia_headers..nvh_classes_clc097_mthd..SetShaderPerformanceCounterValue$u20$as$u20$nvidia_headers..ArrayMthd$GT$4addr17h8c86da2fd491a172E
libvulkan_nouveau.so:_ZN119_$LT$nvidia_headers..nvh_classes_clc097_mthd..SetTirModulationCoefficientTable$u20$as$u20$nvidia_headers..ArrayMthd$GT$4addr17hb3cdd64ea557df08E
libvulkan_nouveau.so:_ZN119_$LT$nvidia_headers..nvh_classes_clc0c0_mthd..SetShaderPerformanceCounterEvent$u20$as$u20$nvidia_headers..ArrayMthd$GT$4addr17hb956eb6b1303ac3dE
libvulkan_nouveau.so:_ZN119_$LT$nvidia_headers..nvh_classes_clc0c0_mthd..SetShaderPerformanceCounterValue$u20$as$u20$nvidia_headers..ArrayMthd$GT$4addr17hf626c4c5d4ebf8a0E
libvulkan_nouveau.so:_ZN119_$LT$nvidia_headers..nvh_classes_clc397_mthd..SetShaderPerformanceCounterEvent$u20$as$u20$nvidia_headers..ArrayMthd$GT$4addr17h6b0310d0d279605fE
libvulkan_nouveau.so:_ZN119_$LT$nvidia_headers..nvh_classes_clc397_mthd..SetShaderPerformanceCounterValue$u20$as$u20$nvidia_headers..ArrayMthd$GT$4addr17hfe3da60f5d36fe02E
libvulkan_nouveau.so:_ZN119_$LT$nvidia_headers..nvh_classes_clc397_mthd..SetTirModulationCoefficientTable$u20$as$u20$nvidia_headers..ArrayMthd$GT$4addr17hc6c0c7bcdf89cd2aE
libvulkan_nouveau.so:_ZN119_$LT$nvidia_headers..nvh_classes_clc3c0_mthd..SetShaderPerformanceCounterEvent$u20$as$u20$nvidia_headers..ArrayMthd$GT$4addr17h11f507de6a43796fE
libvulkan_nouveau.so:_ZN119_$LT$nvidia_headers..nvh_classes_clc3c0_mthd..SetShaderPerformanceCounterValue$u20$as$u20$nvidia_headers..ArrayMthd$GT$4addr17h990fa2b2f74f234cE
libvulkan_nouveau.so:_ZN119_$LT$nvidia_headers..nvh_classes_clc5c0_mthd..SetShaderPerformanceCounterEvent$u20$as$u20$nvidia_headers..ArrayMthd$GT$4addr17h7f9007af0d58b72cE
libvulkan_nouveau.so:_ZN119_$LT$nvidia_headers..nvh_classes_clc5c0_mthd..SetShaderPerformanceCounterValue$u20$as$u20$nvidia_headers..ArrayMthd$GT$4addr17h18142d888f4bc18bE
libvulkan_nouveau.so:_ZN119_$LT$nvidia_headers..nvh_classes_clc6c0_mthd..SetShaderPerformanceCounterEvent$u20$as$u20$nvidia_headers..ArrayMthd$GT$4addr17hfcd948aef17de386E
libvulkan_nouveau.so:_ZN119_$LT$nvidia_headers..nvh_classes_clc6c0_mthd..SetShaderPerformanceCounterValue$u20$as$u20$nvidia_headers..ArrayMthd$GT$4addr17h897c016b274c1026E
libvulkan_nouveau.so:_ZN119_$LT$nvidia_headers..nvh_classes_clc797_mthd..SetShaderPerformanceCounterEvent$u20$as$u20$nvidia_headers..ArrayMthd$GT$4addr17hcb8060c3fe224cc0E
libvulkan_nouveau.so:_ZN119_$LT$nvidia_headers..nvh_classes_clc797_mthd..SetShaderPerformanceCounterValue$u20$as$u20$nvidia_headers..ArrayMthd$GT$4addr17hd3eea669ae467942E
libvulkan_nouveau.so:_ZN119_$LT$nvidia_headers..nvh_classes_clc797_mthd..SetTirModulationCoefficientTable$u20$as$u20$nvidia_headers..ArrayMthd$GT$4addr17h3981d9bfacdf79afE
libvulkan_nouveau.so:_ZN119_$LT$nvidia_headers..nvh_classes_clc7c0_mthd..SetShaderPerformanceCounterEvent$u20$as$u20$nvidia_headers..ArrayMthd$GT$4addr17h71e5d5707dbbd5bdE
libvulkan_nouveau.so:_ZN119_$LT$nvidia_headers..nvh_classes_clc7c0_mthd..SetShaderPerformanceCounterValue$u20$as$u20$nvidia_headers..ArrayMthd$GT$4addr17h897f212b73d37ceeE
libvulkan_nouveau.so:_ZN11miniz_oxide6shared14update_adler3217h19dcac59817f25c8E
libvulkan_nouveau.so:_ZN11miniz_oxide7inflate4core10decompress17h1174ed2e07e503bfE
libvulkan_nouveau.so:_ZN11miniz_oxide7inflate6stream7inflate17hd9b1c5931e8fa071E
libvulkan_nouveau.so:_ZN120_$LT$nvidia_headers..nvh_classes_cla097_mthd..SetBlendPerTargetAlphaSourceCoeff$u20$as$u20$nvidia_headers..ArrayMthd$GT$4addr17h3de1ee79ccb69d3dE
libvulkan_nouveau.so:_ZN120_$LT$nvidia_headers..nvh_classes_cla097_mthd..SetBlendPerTargetColorSourceCoeff$u20$as$u20$nvidia_headers..ArrayMthd$GT$4addr17ha191de839b74e7faE
libvulkan_nouveau.so:_ZN120_$LT$nvidia_headers..nvh_classes_cla097_mthd..SetBlendPerTargetSeparateForAlpha$u20$as$u20$nvidia_headers..ArrayMthd$GT$4addr17hd26298e11a8b00a8E
libvulkan_nouveau.so:_ZN120_$LT$nvidia_headers..nvh_classes_cla097_mthd..SetStreamOutControlComponentCount$u20$as$u20$nvidia_headers..ArrayMthd$GT$4addr17hf535a3c56224b343E
libvulkan_nouveau.so:_ZN120_$LT$nvidia_headers..nvh_classes_clb097_mthd..SetBlendPerTargetAlphaSourceCoeff$u20$as$u20$nvidia_headers..ArrayMthd$GT$4addr17h1b0ab75ff41499bbE
libvulkan_nouveau.so:_ZN120_$LT$nvidia_headers..nvh_classes_clb097_mthd..SetBlendPerTargetColorSourceCoeff$u20$as$u20$nvidia_headers..ArrayMthd$GT$4addr17hc4828c3738932c2fE
libvulkan_nouveau.so:_ZN120_$LT$nvidia_headers..nvh_classes_clb097_mthd..SetBlendPerTargetSeparateForAlpha$u20$as$u20$nvidia_headers..ArrayMthd$GT$4addr17h1cf9dc406e61c43aE
libvulkan_nouveau.so:_ZN120_$LT$nvidia_headers..nvh_classes_clb097_mthd..SetStreamOutControlComponentCount$u20$as$u20$nvidia_headers..ArrayMthd$GT$4addr17hc22b9b0d15948773E
libvulkan_nouveau.so:_ZN120_$LT$nvidia_headers..nvh_classes_clb197_mthd..SetBlendPerTargetAlphaSourceCoeff$u20$as$u20$nvidia_headers..ArrayMthd$GT$4addr17hae600dd37b6c6d4fE
libvulkan_nouveau.so:_ZN120_$LT$nvidia_headers..nvh_classes_clb197_mthd..SetBlendPerTargetColorSourceCoeff$u20$as$u20$nvidia_headers..ArrayMthd$GT$4addr17h43da97aa6e04aa38E
libvulkan_nouveau.so:_ZN120_$LT$nvidia_headers..nvh_classes_clb197_mthd..SetBlendPerTargetSeparateForAlpha$u20$as$u20$nvidia_headers..ArrayMthd$GT$4addr17he1fe014a248e9ec4E
libvulkan_nouveau.so:_ZN120_$LT$nvidia_headers..nvh_classes_clb197_mthd..SetPostVtgShaderAttributeSkipMask$u20$as$u20$nvidia_headers..ArrayMthd$GT$4addr17hcb167341cd9ccb47E
libvulkan_nouveau.so:_ZN120_$LT$nvidia_headers..nvh_classes_clb197_mthd..SetStreamOutControlComponentCount$u20$as$u20$nvidia_headers..ArrayMthd$GT$4addr17h7cbba560a2725cfbE
libvulkan_nouveau.so:_ZN120_$LT$nvidia_headers..nvh_classes_clc097_mthd..SetBlendPerTargetAlphaSourceCoeff$u20$as$u20$nvidia_headers..ArrayMthd$GT$4addr17h77b4d2eb7c70d24eE
libvulkan_nouveau.so:_ZN120_$LT$nvidia_headers..nvh_classes_clc097_mthd..SetBlendPerTargetColorSourceCoeff$u20$as$u20$nvidia_headers..ArrayMthd$GT$4addr17h14b2d6a5986343d2E
libvulkan_nouveau.so:_ZN120_$LT$nvidia_headers..nvh_classes_clc097_mthd..SetBlendPerTargetSeparateForAlpha$u20$as$u20$nvidia_headers..ArrayMthd$GT$4addr17hd9ed4e20160ae7a6E
libvulkan_nouveau.so:_ZN120_$LT$nvidia_headers..nvh_classes_clc097_mthd..SetPostVtgShaderAttributeSkipMask$u20$as$u20$nvidia_headers..ArrayMthd$GT$4addr17hc38259d3ad6b2c41E
libvulkan_nouveau.so:_ZN120_$LT$nvidia_headers..nvh_classes_clc097_mthd..SetStreamOutControlComponentCount$u20$as$u20$nvidia_headers..ArrayMthd$GT$4addr17h69c31075a8bb62d2E
libvulkan_nouveau.so:_ZN120_$LT$nvidia_headers..nvh_classes_clc397_mthd..SetBlendPerTargetAlphaSourceCoeff$u20$as$u20$nvidia_headers..ArrayMthd$GT$4addr17he2641359069a7a32E
libvulkan_nouveau.so:_ZN120_$LT$nvidia_headers..nvh_classes_clc397_mthd..SetBlendPerTargetColorSourceCoeff$u20$as$u20$nvidia_headers..ArrayMthd$GT$4addr17he0d9b7b90a7b8407E
libvulkan_nouveau.so:_ZN120_$LT$nvidia_headers..nvh_classes_clc397_mthd..SetBlendPerTargetSeparateForAlpha$u20$as$u20$nvidia_headers..ArrayMthd$GT$4addr17h10d7146def5972f2E
libvulkan_nouveau.so:_ZN120_$LT$nvidia_headers..nvh_classes_clc397_mthd..SetPositionWScaledOffsetReservedA$u20$as$u20$nvidia_headers..ArrayMthd$GT$4addr17heacbcaa858135b3aE
libvulkan_nouveau.so:_ZN120_$LT$nvidia_headers..nvh_classes_clc397_mthd..SetPositionWScaledOffsetReservedB$u20$as$u20$nvidia_headers..ArrayMthd$GT$4addr17h6f9f42d092665702E
libvulkan_nouveau.so:_ZN120_$LT$nvidia_headers..nvh_classes_clc397_mthd..SetPostVtgShaderAttributeSkipMask$u20$as$u20$nvidia_headers..ArrayMthd$GT$4addr17h518577a5744e474eE
libvulkan_nouveau.so:_ZN120_$LT$nvidia_headers..nvh_classes_clc397_mthd..SetStreamOutControlComponentCount$u20$as$u20$nvidia_headers..ArrayMthd$GT$4addr17h7edea2621ebfd01fE
libvulkan_nouveau.so:_ZN120_$LT$nvidia_headers..nvh_classes_clc5c0_mthd..SetScgComputeSchedulingParameters$u20$as$u20$nvidia_headers..ArrayMthd$GT$4addr17ha4b59f3cfd14cb29E
libvulkan_nouveau.so:_ZN120_$LT$nvidia_headers..nvh_classes_clc6c0_mthd..SetScgComputeSchedulingParameters$u20$as$u20$nvidia_headers..ArrayMthd$GT$4addr17h333f52c8ed6efb81E
libvulkan_nouveau.so:_ZN120_$LT$nvidia_headers..nvh_classes_clc797_mthd..SetBlendPerTargetAlphaSourceCoeff$u20$as$u20$nvidia_headers..ArrayMthd$GT$4addr17h07a56b6fd26ce51eE
libvulkan_nouveau.so:_ZN120_$LT$nvidia_headers..nvh_classes_clc797_mthd..SetBlendPerTargetColorSourceCoeff$u20$as$u20$nvidia_headers..ArrayMthd$GT$4addr17hdee77543045a7eb4E
libvulkan_nouveau.so:_ZN120_$LT$nvidia_headers..nvh_classes_clc797_mthd..SetBlendPerTargetSeparateForAlpha$u20$as$u20$nvidia_headers..ArrayMthd$GT$4addr17h16754d801b3e41abE
libvulkan_nouveau.so:_ZN120_$LT$nvidia_headers..nvh_classes_clc797_mthd..SetPositionWScaledOffsetReservedA$u20$as$u20$nvidia_headers..ArrayMthd$GT$4addr17hfb968e0fbd8ca6b3E
libvulkan_nouveau.so:_ZN120_$LT$nvidia_headers..nvh_classes_clc797_mthd..SetPositionWScaledOffsetReservedB$u20$as$u20$nvidia_headers..ArrayMthd$GT$4addr17h9ab50a4052ec3ad1E
libvulkan_nouveau.so:_ZN120_$LT$nvidia_headers..nvh_classes_clc797_mthd..SetPostVtgShaderAttributeSkipMask$u20$as$u20$nvidia_headers..ArrayMthd$GT$4addr17h6109793db6a359e0E
libvulkan_nouveau.so:_ZN120_$LT$nvidia_headers..nvh_classes_clc797_mthd..SetStreamOutControlComponentCount$u20$as$u20$nvidia_headers..ArrayMthd$GT$4addr17h4d9f4307650e0000E
libvulkan_nouveau.so:_ZN120_$LT$nvidia_headers..nvh_classes_clc7c0_mthd..SetScgComputeSchedulingParameters$u20$as$u20$nvidia_headers..ArrayMthd$GT$4addr17hc73309c648b6249aE
libvulkan_nouveau.so:_ZN121_$LT$nvidia_headers..nvh_classes_cla097_mthd..SetStreamOutBufferLoadWritePointer$u20$as$u20$nvidia_headers..ArrayMthd$GT$4addr17h69ae7e5e96c3cd63E
libvulkan_nouveau.so:_ZN121_$LT$nvidia_headers..nvh_classes_clb097_mthd..SetStreamOutBufferLoadWritePointer$u20$as$u20$nvidia_headers..ArrayMthd$GT$4addr17h1e93b1453876e6fdE
libvulkan_nouveau.so:_ZN121_$LT$nvidia_headers..nvh_classes_clb197_mthd..SetStreamOutBufferLoadWritePointer$u20$as$u20$nvidia_headers..ArrayMthd$GT$4addr17hb36ae77169bafdc2E
libvulkan_nouveau.so:_ZN121_$LT$nvidia_headers..nvh_classes_clc097_mthd..SetStreamOutBufferLoadWritePointer$u20$as$u20$nvidia_headers..ArrayMthd$GT$4addr17h999839cdfb3f4290E
libvulkan_nouveau.so:_ZN121_$LT$nvidia_headers..nvh_classes_clc397_mthd..SetStreamOutBufferLoadWritePointer$u20$as$u20$nvidia_headers..ArrayMthd$GT$4addr17h157a02e5a0cbe4cdE
libvulkan_nouveau.so:_ZN121_$LT$nvidia_headers..nvh_classes_clc797_mthd..SetScgGraphicsSchedulingParameters$u20$as$u20$nvidia_headers..ArrayMthd$GT$4addr17hfdd7c9b682c3f7bcE
libvulkan_nouveau.so:_ZN121_$LT$nvidia_headers..nvh_classes_clc797_mthd..SetShadingRateIndexSurfaceAddressA$u20$as$u20$nvidia_headers..ArrayMthd$GT$4addr17hbe42f5c54bf172c4E
libvulkan_nouveau.so:_ZN121_$LT$nvidia_headers..nvh_classes_clc797_mthd..SetShadingRateIndexSurfaceAddressB$u20$as$u20$nvidia_headers..ArrayMthd$GT$4addr17h65f582229f6f1efeE
libvulkan_nouveau.so:_ZN121_$LT$nvidia_headers..nvh_classes_clc797_mthd..SetStreamOutBufferLoadWritePointer$u20$as$u20$nvidia_headers..ArrayMthd$GT$4addr17hf29f784cc960daf7E
libvulkan_nouveau.so:_ZN121_$LT$nvidia_headers..nvh_classes_clc797_mthd..SetVariablePixelRateShadingControl$u20$as$u20$nvidia_headers..ArrayMthd$GT$4addr17hdf7268c08762cbb0E
libvulkan_nouveau.so:_ZN122_$LT$nvidia_headers..nvh_classes_cl90c0_mthd..SetShaderPerformanceCounterControlA$u20$as$u20$nvidia_headers..ArrayMthd$GT$4addr17hb25e0aaedf274a17E
libvulkan_nouveau.so:_ZN122_$LT$nvidia_headers..nvh_classes_cl90c0_mthd..SetShaderPerformanceCounterControlB$u20$as$u20$nvidia_headers..ArrayMthd$GT$4addr17he3dbc004aa2d6990E
libvulkan_nouveau.so:_ZN122_$LT$nvidia_headers..nvh_classes_cla097_mthd..SetShaderPerformanceCounterControlA$u20$as$u20$nvidia_headers..ArrayMthd$GT$4addr17hf9b4c07cc115e3abE
libvulkan_nouveau.so:_ZN122_$LT$nvidia_headers..nvh_classes_cla097_mthd..SetShaderPerformanceCounterControlB$u20$as$u20$nvidia_headers..ArrayMthd$GT$4addr17he3b52fcc3ec4661cE
libvulkan_nouveau.so:_ZN122_$LT$nvidia_headers..nvh_classes_cla0c0_mthd..SetShaderPerformanceCounterControlA$u20$as$u20$nvidia_headers..ArrayMthd$GT$4addr17h1c1005921a713416E
libvulkan_nouveau.so:_ZN122_$LT$nvidia_headers..nvh_classes_cla0c0_mthd..SetShaderPerformanceCounterControlB$u20$as$u20$nvidia_headers..ArrayMthd$GT$4addr17h2db0890fdf804c55E
libvulkan_nouveau.so:_ZN122_$LT$nvidia_headers..nvh_classes_clb097_mthd..SetShaderPerformanceCounterControlA$u20$as$u20$nvidia_headers..ArrayMthd$GT$4addr17h47ab2650a4dc7d08E
libvulkan_nouveau.so:_ZN122_$LT$nvidia_headers..nvh_classes_clb097_mthd..SetShaderPerformanceCounterControlB$u20$as$u20$nvidia_headers..ArrayMthd$GT$4addr17h51b10f549edd308eE
libvulkan_nouveau.so:_ZN122_$LT$nvidia_headers..nvh_classes_clb0c0_mthd..SetShaderPerformanceCounterControlA$u20$as$u20$nvidia_headers..ArrayMthd$GT$4addr17h8aacd9ea1c9c1b01E
libvulkan_nouveau.so:_ZN122_$LT$nvidia_headers..nvh_classes_clb0c0_mthd..SetShaderPerformanceCounterControlB$u20$as$u20$nvidia_headers..ArrayMthd$GT$4addr17h2f62f494201fc92cE
libvulkan_nouveau.so:_ZN122_$LT$nvidia_headers..nvh_classes_clb197_mthd..SetShaderPerformanceCounterControlA$u20$as$u20$nvidia_headers..ArrayMthd$GT$4addr17h5590d3286744f21bE
libvulkan_nouveau.so:_ZN122_$LT$nvidia_headers..nvh_classes_clb197_mthd..SetShaderPerformanceCounterControlB$u20$as$u20$nvidia_headers..ArrayMthd$GT$4addr17he9ca93250a849417E
libvulkan_nouveau.so:_ZN122_$LT$nvidia_headers..nvh_classes_clb1c0_mthd..SetShaderPerformanceCounterControlA$u20$as$u20$nvidia_headers..ArrayMthd$GT$4addr17h343ad59f7fc26925E
libvulkan_nouveau.so:_ZN122_$LT$nvidia_headers..nvh_classes_clb1c0_mthd..SetShaderPerformanceCounterControlB$u20$as$u20$nvidia_headers..ArrayMthd$GT$4addr17hdeb7c3595a20b234E
libvulkan_nouveau.so:_ZN122_$LT$nvidia_headers..nvh_classes_clc097_mthd..SetShaderPerformanceCounterControlA$u20$as$u20$nvidia_headers..ArrayMthd$GT$4addr17h7d716e00dc7d6b45E
libvulkan_nouveau.so:_ZN122_$LT$nvidia_headers..nvh_classes_clc097_mthd..SetShaderPerformanceCounterControlB$u20$as$u20$nvidia_headers..ArrayMthd$GT$4addr17hf721645fac79b21aE
libvulkan_nouveau.so:_ZN122_$LT$nvidia_headers..nvh_classes_clc0c0_mthd..SetShaderPerformanceCounterControlA$u20$as$u20$nvidia_headers..ArrayMthd$GT$4addr17h62ae18107a1b208cE
libvulkan_nouveau.so:_ZN122_$LT$nvidia_headers..nvh_classes_clc0c0_mthd..SetShaderPerformanceCounterControlB$u20$as$u20$nvidia_headers..ArrayMthd$GT$4addr17h3ba19afba7e71279E
libvulkan_nouveau.so:_ZN122_$LT$nvidia_headers..nvh_classes_clc397_mthd..SetShaderPerformanceCounterControlA$u20$as$u20$nvidia_headers..ArrayMthd$GT$4addr17h3bcbaaf5486caae0E
libvulkan_nouveau.so:_ZN122_$LT$nvidia_headers..nvh_classes_clc397_mthd..SetShaderPerformanceCounterControlB$u20$as$u20$nvidia_headers..ArrayMthd$GT$4addr17h920c2ce2e8b07dd8E
libvulkan_nouveau.so:_ZN122_$LT$nvidia_headers..nvh_classes_clc3c0_mthd..SetShaderPerformanceCounterControlA$u20$as$u20$nvidia_headers..ArrayMthd$GT$4addr17h0698489b435b423dE
libvulkan_nouveau.so:_ZN122_$LT$nvidia_headers..nvh_classes_clc3c0_mthd..SetShaderPerformanceCounterControlB$u20$as$u20$nvidia_headers..ArrayMthd$GT$4addr17hf6aa0163173678e3E
libvulkan_nouveau.so:_ZN122_$LT$nvidia_headers..nvh_classes_clc5c0_mthd..SetShaderPerformanceCounterControlA$u20$as$u20$nvidia_headers..ArrayMthd$GT$4addr17h6d3d4ec7abb43463E
libvulkan_nouveau.so:_ZN122_$LT$nvidia_headers..nvh_classes_clc5c0_mthd..SetShaderPerformanceCounterControlB$u20$as$u20$nvidia_headers..ArrayMthd$GT$4addr17hc9c1f9df584a7014E
libvulkan_nouveau.so:_ZN122_$LT$nvidia_headers..nvh_classes_clc6c0_mthd..SetShaderPerformanceCounterControlA$u20$as$u20$nvidia_headers..ArrayMthd$GT$4addr17hee09d4adac359678E
libvulkan_nouveau.so:_ZN122_$LT$nvidia_headers..nvh_classes_clc6c0_mthd..SetShaderPerformanceCounterControlB$u20$as$u20$nvidia_headers..ArrayMthd$GT$4addr17h1e5b694d309c1013E
libvulkan_nouveau.so:_ZN122_$LT$nvidia_headers..nvh_classes_clc797_mthd..SetShaderPerformanceCounterControlA$u20$as$u20$nvidia_headers..ArrayMthd$GT$4addr17h7f26ba108af8b19aE
libvulkan_nouveau.so:_ZN122_$LT$nvidia_headers..nvh_classes_clc797_mthd..SetShaderPerformanceCounterControlB$u20$as$u20$nvidia_headers..ArrayMthd$GT$4addr17hd4410f570123ec4aE
libvulkan_nouveau.so:_ZN122_$LT$nvidia_headers..nvh_classes_clc797_mthd..SetShadingRateIndexSurfaceBlockSize$u20$as$u20$nvidia_headers..ArrayMthd$GT$4addr17h7923d0d9700fec62E
libvulkan_nouveau.so:_ZN122_$LT$nvidia_headers..nvh_classes_clc7c0_mthd..SetShaderPerformanceCounterControlA$u20$as$u20$nvidia_headers..ArrayMthd$GT$4addr17hdfa01fc00b9f58fcE
libvulkan_nouveau.so:_ZN122_$LT$nvidia_headers..nvh_classes_clc7c0_mthd..SetShaderPerformanceCounterControlB$u20$as$u20$nvidia_headers..ArrayMthd$GT$4addr17h6668d40075495facE
libvulkan_nouveau.so:_ZN123_$LT$nvidia_headers..nvh_classes_clb197_mthd..SetViewportIncreaseSnapGridPrecision$u20$as$u20$nvidia_headers..ArrayMthd$GT$4addr17hba9c87cc947e902fE
libvulkan_nouveau.so:_ZN123_$LT$nvidia_headers..nvh_classes_clc097_mthd..SetViewportIncreaseSnapGridPrecision$u20$as$u20$nvidia_headers..ArrayMthd$GT$4addr17h3515d6c3ebaa90ffE
libvulkan_nouveau.so:_ZN123_$LT$nvidia_headers..nvh_classes_clc397_mthd..SetViewportIncreaseSnapGridPrecision$u20$as$u20$nvidia_headers..ArrayMthd$GT$4addr17h420d1f57ff058489E
libvulkan_nouveau.so:_ZN123_$LT$nvidia_headers..nvh_classes_clc797_mthd..SetShadingRateIndexSurfaceArrayPitch$u20$as$u20$nvidia_headers..ArrayMthd$GT$4addr17h065b3e2369a03820E
libvulkan_nouveau.so:_ZN123_$LT$nvidia_headers..nvh_classes_clc797_mthd..SetVariablePixelRateShadingReservedA$u20$as$u20$nvidia_headers..ArrayMthd$GT$4addr17hdc13c7b72b9ec377E
libvulkan_nouveau.so:_ZN123_$LT$nvidia_headers..nvh_classes_clc797_mthd..SetViewportIncreaseSnapGridPrecision$u20$as$u20$nvidia_headers..ArrayMthd$GT$4addr17h83bfdacb5f4f71bcE
libvulkan_nouveau.so:_ZN124_$LT$nvidia_headers..nvh_classes_clb097_mthd..SetShaderPerformanceCounterValueUpper$u20$as$u20$nvidia_headers..ArrayMthd$GT$4addr17hb117ced3f6382b54E
libvulkan_nouveau.so:_ZN124_$LT$nvidia_headers..nvh_classes_clb0c0_mthd..SetShaderPerformanceCounterValueUpper$u20$as$u20$nvidia_headers..ArrayMthd$GT$4addr17h39fdae6f203b578dE
libvulkan_nouveau.so:_ZN124_$LT$nvidia_headers..nvh_classes_clb197_mthd..SetShaderPerformanceCounterValueUpper$u20$as$u20$nvidia_headers..ArrayMthd$GT$4addr17hc8048aa6629d9283E
libvulkan_nouveau.so:_ZN124_$LT$nvidia_headers..nvh_classes_clb1c0_mthd..SetShaderPerformanceCounterValueUpper$u20$as$u20$nvidia_headers..ArrayMthd$GT$4addr17hda6d4046610dfa26E
libvulkan_nouveau.so:_ZN124_$LT$nvidia_headers..nvh_classes_clc097_mthd..SetShaderPerformanceCounterValueUpper$u20$as$u20$nvidia_headers..ArrayMthd$GT$4addr17h8b3cf3cd26778433E
libvulkan_nouveau.so:_ZN124_$LT$nvidia_headers..nvh_classes_clc0c0_mthd..SetShaderPerformanceCounterValueUpper$u20$as$u20$nvidia_headers..ArrayMthd$GT$4addr17h26fa0cf23d682852E
libvulkan_nouveau.so:_ZN124_$LT$nvidia_headers..nvh_classes_clc397_mthd..SetShaderPerformanceCounterValueUpper$u20$as$u20$nvidia_headers..ArrayMthd$GT$4addr17h642b81bf2af23a6aE
libvulkan_nouveau.so:_ZN124_$LT$nvidia_headers..nvh_classes_clc3c0_mthd..SetShaderPerformanceCounterValueUpper$u20$as$u20$nvidia_headers..ArrayMthd$GT$4addr17h8ddd9c13e34018f8E
libvulkan_nouveau.so:_ZN124_$LT$nvidia_headers..nvh_classes_clc5c0_mthd..SetShaderPerformanceCounterValueUpper$u20$as$u20$nvidia_headers..ArrayMthd$GT$4addr17h729b7a6bedda5588E
libvulkan_nouveau.so:_ZN124_$LT$nvidia_headers..nvh_classes_clc6c0_mthd..SetShaderPerformanceCounterValueUpper$u20$as$u20$nvidia_headers..ArrayMthd$GT$4addr17h10dfa00244f68eb6E
libvulkan_nouveau.so:_ZN124_$LT$nvidia_headers..nvh_classes_clc797_mthd..SetShaderPerformanceCounterValueUpper$u20$as$u20$nvidia_headers..ArrayMthd$GT$4addr17h1341c1453acdaebdE
libvulkan_nouveau.so:_ZN124_$LT$nvidia_headers..nvh_classes_clc7c0_mthd..SetShaderPerformanceCounterValueUpper$u20$as$u20$nvidia_headers..ArrayMthd$GT$4addr17h267071ad4351d4abE
libvulkan_nouveau.so:_ZN126_$LT$nvidia_headers..nvh_classes_clc797_mthd..SetShadingRateIndexSurfaceAllocatedSize$u20$as$u20$nvidia_headers..ArrayMthd$GT$4addr17hbab29617bd4763bbE
libvulkan_nouveau.so:_ZN126_$LT$nvidia_headers..nvh_classes_clc797_mthd..SetVariablePixelRateShadingIndexToRateA$u20$as$u20$nvidia_headers..ArrayMthd$GT$4addr17hb537e6174a1b23aeE
libvulkan_nouveau.so:_ZN126_$LT$nvidia_headers..nvh_classes_clc797_mthd..SetVariablePixelRateShadingIndexToRateB$u20$as$u20$nvidia_headers..ArrayMthd$GT$4addr17ha6fc85c100c49804E
libvulkan_nouveau.so:_ZN126_$LT$std..process..Child$u20$as$u20$std..sys_common..IntoInner$LT$std..sys..pal..unix..process..process_inner..Process$GT$$GT$10into_inner17h9c2cf10d4b78bb11E
libvulkan_nouveau.so:_ZN127_$LT$nvidia_headers..nvh_classes_clc397_mthd..SetShaderPerformanceSnapshotCounterValue$u20$as$u20$nvidia_headers..ArrayMthd$GT$4addr17h2cebdf108a370d1eE
libvulkan_nouveau.so:_ZN127_$LT$nvidia_headers..nvh_classes_clc3c0_mthd..SetShaderPerformanceSnapshotCounterValue$u20$as$u20$nvidia_headers..ArrayMthd$GT$4addr17h1a39caf3e1d4ffc0E
libvulkan_nouveau.so:_ZN127_$LT$nvidia_headers..nvh_classes_clc5c0_mthd..SetShaderPerformanceSnapshotCounterValue$u20$as$u20$nvidia_headers..ArrayMthd$GT$4addr17hf46afd5b45293cb3E
libvulkan_nouveau.so:_ZN127_$LT$nvidia_headers..nvh_classes_clc6c0_mthd..SetShaderPerformanceSnapshotCounterValue$u20$as$u20$nvidia_headers..ArrayMthd$GT$4addr17hf63325e8f9dbe593E
libvulkan_nouveau.so:_ZN127_$LT$nvidia_headers..nvh_classes_clc797_mthd..SetMultiViewRenderTargetArrayIndexOffset$u20$as$u20$nvidia_headers..ArrayMthd$GT$4addr17h302ee7cf6c14fb32E
libvulkan_nouveau.so:_ZN127_$LT$nvidia_headers..nvh_classes_clc797_mthd..SetShaderPerformanceSnapshotCounterValue$u20$as$u20$nvidia_headers..ArrayMthd$GT$4addr17h87ef450915598fc3E
libvulkan_nouveau.so:_ZN127_$LT$nvidia_headers..nvh_classes_clc7c0_mthd..SetShaderPerformanceSnapshotCounterValue$u20$as$u20$nvidia_headers..ArrayMthd$GT$4addr17h720c22c37164b9afE
libvulkan_nouveau.so:_ZN127_$LT$std..sys..pal..unix..process..process_common..CommandArgs$u20$as$u20$core..iter..traits..exact_size..ExactSizeIterator$GT$3len17hcb3ef3de54b137f8E
libvulkan_nouveau.so:_ZN132_$LT$alloc..vec..Vec$LT$T$C$A$GT$$u20$as$u20$alloc..vec..spec_extend..SpecExtend$LT$$RF$T$C$core..slice..iter..Iter$LT$T$GT$$GT$$GT$11spec_extend17he5d90df8b8d3107aE
libvulkan_nouveau.so:_ZN132_$LT$nvidia_headers..nvh_classes_clc397_mthd..SetShaderPerformanceSnapshotCounterValueUpper$u20$as$u20$nvidia_headers..ArrayMthd$GT$4addr17h5e5c03408c48e13fE
libvulkan_nouveau.so:_ZN132_$LT$nvidia_headers..nvh_classes_clc3c0_mthd..SetShaderPerformanceSnapshotCounterValueUpper$u20$as$u20$nvidia_headers..ArrayMthd$GT$4addr17hd298b23ffc08e241E
libvulkan_nouveau.so:_ZN132_$LT$nvidia_headers..nvh_classes_clc5c0_mthd..SetShaderPerformanceSnapshotCounterValueUpper$u20$as$u20$nvidia_headers..ArrayMthd$GT$4addr17h3f764dcd8ef28c59E
libvulkan_nouveau.so:_ZN132_$LT$nvidia_headers..nvh_classes_clc6c0_mthd..SetShaderPerformanceSnapshotCounterValueUpper$u20$as$u20$nvidia_headers..ArrayMthd$GT$4addr17h25f568545d358ed4E
libvulkan_nouveau.so:_ZN132_$LT$nvidia_headers..nvh_classes_clc797_mthd..SetShaderPerformanceSnapshotCounterValueUpper$u20$as$u20$nvidia_headers..ArrayMthd$GT$4addr17hd051cdb7a00e402eE
libvulkan_nouveau.so:_ZN132_$LT$nvidia_headers..nvh_classes_clc797_mthd..SetSpareMultiViewRenderTargetArrayIndexOffset$u20$as$u20$nvidia_headers..ArrayMthd$GT$4addr17h88e17e224f686edaE
libvulkan_nouveau.so:_ZN132_$LT$nvidia_headers..nvh_classes_clc7c0_mthd..SetShaderPerformanceSnapshotCounterValueUpper$u20$as$u20$nvidia_headers..ArrayMthd$GT$4addr17h340106ae8ab7a182E
libvulkan_nouveau.so:_ZN14rustc_demangle12try_demangle17h0b3ce411e5c34884E
libvulkan_nouveau.so:_ZN14rustc_demangle8demangle17h8e811b7301a1c2ecE
libvulkan_nouveau.so:_ZN153_$LT$core..result..Result$LT$T$C$F$GT$$u20$as$u20$core..ops..try_trait..FromResidual$LT$core..result..Result$LT$core..convert..Infallible$C$E$GT$$GT$$GT$13from_residual17h136c8efbabe7cf05E
libvulkan_nouveau.so:_ZN153_$LT$core..result..Result$LT$T$C$F$GT$$u20$as$u20$core..ops..try_trait..FromResidual$LT$core..result..Result$LT$core..convert..Infallible$C$E$GT$$GT$$GT$13from_residual17h37c74f6a3968d3deE
libvulkan_nouveau.so:_ZN153_$LT$core..result..Result$LT$T$C$F$GT$$u20$as$u20$core..ops..try_trait..FromResidual$LT$core..result..Result$LT$core..convert..Infallible$C$E$GT$$GT$$GT$13from_residual17h76ab33687013c741E
libvulkan_nouveau.so:_ZN153_$LT$core..result..Result$LT$T$C$F$GT$$u20$as$u20$core..ops..try_trait..FromResidual$LT$core..result..Result$LT$core..convert..Infallible$C$E$GT$$GT$$GT$13from_residual17hd4fe9c76cbd390d1E
libvulkan_nouveau.so:_ZN153_$LT$core..result..Result$LT$T$C$F$GT$$u20$as$u20$core..ops..try_trait..FromResidual$LT$core..result..Result$LT$core..convert..Infallible$C$E$GT$$GT$$GT$13from_residual17he624b68cdcb3b189E
libvulkan_nouveau.so:_ZN186_$LT$std..sys..pal..unix..process..process_inner..$LT$impl$u20$std..sys..pal..unix..process..process_common..Command$GT$..posix_spawn..PosixSpawnattr$u20$as$u20$core..ops..drop..Drop$GT$4drop17h378d84cf7e79f8f8E
libvulkan_nouveau.so:_ZN193_$LT$std..process..Child$u20$as$u20$std..sys_common..FromInner$LT$$LP$std..sys..pal..unix..process..process_inner..Process$C$std..sys..pal..unix..process..process_common..StdioPipes$RP$$GT$$GT$10from_inner17h34f170173f832dbcE
libvulkan_nouveau.so:_ZN193_$LT$std..sys..pal..unix..process..process_inner..$LT$impl$u20$std..sys..pal..unix..process..process_common..Command$GT$..posix_spawn..PosixSpawnFileActions$u20$as$u20$core..ops..drop..Drop$GT$4drop17h58804f9999b3608eE
libvulkan_nouveau.so:_ZN254_$LT$alloc..boxed..convert..$LT$impl$u20$core..convert..From$LT$alloc..string..String$GT$$u20$for$u20$alloc..boxed..Box$LT$dyn$u20$core..error..Error$u2b$core..marker..Sync$u2b$core..marker..Send$GT$$GT$..from..StringError$u20$as$u20$core..fmt..Debug$GT$3fmt17h52b69889db662cb0E
libvulkan_nouveau.so:_ZN256_$LT$alloc..boxed..convert..$LT$impl$u20$core..convert..From$LT$alloc..string..String$GT$$u20$for$u20$alloc..boxed..Box$LT$dyn$u20$core..error..Error$u2b$core..marker..Sync$u2b$core..marker..Send$GT$$GT$..from..StringError$u20$as$u20$core..error..Error$GT$11description17h9039f68a56d09821E
libvulkan_nouveau.so:_ZN256_$LT$alloc..boxed..convert..$LT$impl$u20$core..convert..From$LT$alloc..string..String$GT$$u20$for$u20$alloc..boxed..Box$LT$dyn$u20$core..error..Error$u2b$core..marker..Sync$u2b$core..marker..Send$GT$$GT$..from..StringError$u20$as$u20$core..fmt..Display$GT$3fmt17h52115c45ed94db4fE
libvulkan_nouveau.so:_ZN3std10sys_common2fs6exists17haf234f6b6ef7c131E
libvulkan_nouveau.so:_ZN3std10sys_common3net11TcpListener4bind17h1ce1edd21222a99cE
libvulkan_nouveau.so:_ZN3std10sys_common3net154_$LT$impl$u20$std..sys_common..IntoInner$LT$$LP$std..sys_common..net..SocketAddrCRepr$C$u32$RP$$GT$$u20$for$u20$$RF$core..net..socket_addr..SocketAddr$GT$10into_inner17hc811cb4237007afbE
libvulkan_nouveau.so:_ZN3std10sys_common3net9TcpStream7connect17h88381435bdd37603E
libvulkan_nouveau.so:_ZN3std10sys_common3net9UdpSocket4bind17h1c4b393d3455404bE
libvulkan_nouveau.so:_ZN3std10sys_common3net9UdpSocket7connect17hf6147757d6a52b3fE
libvulkan_nouveau.so:_ZN3std10sys_common3net9UdpSocket7send_to17h05cdf05d97334273E
libvulkan_nouveau.so:_ZN3std10sys_common4wtf816slice_error_fail17hc9590207fbb63b0dE
libvulkan_nouveau.so:_ZN3std10sys_common4wtf87Wtf8Buf25push_code_point_unchecked17ha06071122cd174d8E
libvulkan_nouveau.so:_ZN3std10sys_common7process10CommandEnv3set17hf4ff477abb51995aE
libvulkan_nouveau.so:_ZN3std10sys_common7process10CommandEnv6remove17he7edc31c2c94db35E
libvulkan_nouveau.so:_ZN3std12backtrace_rs9symbolize5gimli7resolve17h0ec614b38d9f52d1E
libvulkan_nouveau.so:_ZN3std12backtrace_rs9symbolize6Symbol12filename_raw17h41d91567f9e4a225E
libvulkan_nouveau.so:_ZN3std12backtrace_rs9symbolize6Symbol4name17hbdd1843637a9c78cE
libvulkan_nouveau.so:_ZN3std2fs10DirBuilder7_create17ha7eefdefcfcf3adaE
libvulkan_nouveau.so:_ZN3std2fs11OpenOptions5_open17hb2367d2b7aba92a0E
libvulkan_nouveau.so:_ZN3std2fs14read_to_string5inner17h4e32f110a777ac45E
libvulkan_nouveau.so:_ZN3std2fs4File11lock_shared17h8fa8a6fdeed91ddbE
libvulkan_nouveau.so:_ZN3std2fs4File15set_permissions17h94c6b6a6f094515dE
libvulkan_nouveau.so:_ZN3std2fs4File15try_lock_shared17hc0f6b6fe0afa3a95E
libvulkan_nouveau.so:_ZN3std2fs4File4lock17ha8bdd00c17b066c0E
libvulkan_nouveau.so:_ZN3std2fs4File6unlock17he755a2693febae8fE
libvulkan_nouveau.so:_ZN3std2fs4File7set_len17h092a8b5f97a1ff5bE
libvulkan_nouveau.so:_ZN3std2fs4File8metadata17h344bb722b06e2975E
libvulkan_nouveau.so:_ZN3std2fs4File8sync_all17h6f70036ebe7e3c8cE
libvulkan_nouveau.so:_ZN3std2fs4File8try_lock17h53e662f80b0c6089E
libvulkan_nouveau.so:_ZN3std2fs4File9set_times17hae4ec9e396c8e60dE
libvulkan_nouveau.so:_ZN3std2fs4File9sync_data17hc8bbd7a065c7053fE
libvulkan_nouveau.so:_ZN3std2fs4File9try_clone17h2ecf81b6052a42ddE
libvulkan_nouveau.so:_ZN3std2fs4read5inner17hf18d0ad743001548E
libvulkan_nouveau.so:_ZN3std2fs5write5inner17hd58562ce66e900a4E
libvulkan_nouveau.so:_ZN3std2fs81_$LT$impl$u20$std..io..Read$u20$for$u20$alloc..sync..Arc$LT$std..fs..File$GT$$GT$11read_to_end17ha6c9ef7c8d60ac01E
libvulkan_nouveau.so:_ZN3std2fs81_$LT$impl$u20$std..io..Read$u20$for$u20$alloc..sync..Arc$LT$std..fs..File$GT$$GT$13read_vectored17h9aee330dd18c1988E
libvulkan_nouveau.so:_ZN3std2fs81_$LT$impl$u20$std..io..Read$u20$for$u20$alloc..sync..Arc$LT$std..fs..File$GT$$GT$14read_to_string17hbff469d5d47e0306E
libvulkan_nouveau.so:_ZN3std2fs81_$LT$impl$u20$std..io..Read$u20$for$u20$alloc..sync..Arc$LT$std..fs..File$GT$$GT$4read17h40dafbe0e085e303E
libvulkan_nouveau.so:_ZN3std2fs81_$LT$impl$u20$std..io..Read$u20$for$u20$alloc..sync..Arc$LT$std..fs..File$GT$$GT$8read_buf17h64235069e2c71a83E
libvulkan_nouveau.so:_ZN3std2fs81_$LT$impl$u20$std..io..Seek$u20$for$u20$alloc..sync..Arc$LT$std..fs..File$GT$$GT$4seek17h6d4a7a689565c39dE
libvulkan_nouveau.so:_ZN3std2fs82_$LT$impl$u20$std..io..Write$u20$for$u20$alloc..sync..Arc$LT$std..fs..File$GT$$GT$14write_vectored17h0a65f0e46c919f18E
libvulkan_nouveau.so:_ZN3std2fs82_$LT$impl$u20$std..io..Write$u20$for$u20$alloc..sync..Arc$LT$std..fs..File$GT$$GT$5write17hc34b5dcd19657d70E
libvulkan_nouveau.so:_ZN3std2fs8DirEntry4path17h11f66a77a92a6c22E
libvulkan_nouveau.so:_ZN3std2fs8DirEntry8metadata17hd7ba69ccd21c3578E
libvulkan_nouveau.so:_ZN3std2fs8DirEntry9file_name17hfdb6f0d28e598c36E
libvulkan_nouveau.so:_ZN3std2fs8DirEntry9file_type17h9f50c820aac16bc1E
libvulkan_nouveau.so:_ZN3std2fs8Metadata7created17hbfb6e0e3ee33005dE
libvulkan_nouveau.so:_ZN3std2fs8Metadata8accessed17he83582d3349788acE
libvulkan_nouveau.so:_ZN3std2fs8Metadata8modified17h14f57346cc6e5ab4E
libvulkan_nouveau.so:_ZN3std2io10IoSliceMut10into_slice17h22ea3f26b2aa1dd3E
libvulkan_nouveau.so:_ZN3std2io5error5Error3new17h79898339d4dd9c25E
libvulkan_nouveau.so:_ZN3std2io5error5Error3new17h7f1cf7c10cdbc499E
libvulkan_nouveau.so:_ZN3std2io5error5Error4_new17h54d754c3be3e19d4E
libvulkan_nouveau.so:_ZN3std2io5error82_$LT$impl$u20$core..fmt..Debug$u20$for$u20$std..io..error..repr_unpacked..Repr$GT$3fmt17hf92d5750816501ceE
libvulkan_nouveau.so:_ZN3std2io5impls83_$LT$impl$u20$std..io..Write$u20$for$u20$core..io..borrowed_buf..BorrowedCursor$GT$5write17hb9ad1e3abcd5f968E
libvulkan_nouveau.so:_ZN3std2io5stdio18set_output_capture17h35031a0abdb5c66aE
libvulkan_nouveau.so:_ZN3std2io5stdio22try_set_output_capture17h33758cf12b99d6b1E
libvulkan_nouveau.so:_ZN3std2io5stdio23attempt_print_to_stderr17h9389cfa2030c27bbE
libvulkan_nouveau.so:_ZN3std2io5stdio5Stdin4lock17he0c5a9e18c488f61E
libvulkan_nouveau.so:_ZN3std2io5stdio5Stdin5lines17h6ee6608f0f4e703cE
libvulkan_nouveau.so:_ZN3std2io5stdio5Stdin9read_line17h2f1e8483943d09d4E
libvulkan_nouveau.so:_ZN3std2io5stdio5stdin17h4d72d332a2552e0eE
libvulkan_nouveau.so:_ZN3std2io5stdio6Stderr4lock17h72c0e5d14e0497ecE
libvulkan_nouveau.so:_ZN3std2io5stdio6Stdout4lock17h88975bbafd1e6003E
libvulkan_nouveau.so:_ZN3std2io5stdio6_print17h79c95e609ab0a9aaE
libvulkan_nouveau.so:_ZN3std2io5stdio6stdout17hd20e0ad4d72d9043E
libvulkan_nouveau.so:_ZN3std2io5stdio7_eprint17hd9a3a6f28d6c9b68E
libvulkan_nouveau.so:_ZN3std2io7IoSlice8as_slice17h8d284963e675f1dcE
libvulkan_nouveau.so:_ZN3std2io8buffered9bufreader6buffer6Buffer9backshift17h015d9840efaf0226E
libvulkan_nouveau.so:_ZN3std2io8buffered9bufwriter18BufWriter$LT$W$GT$10write_cold17he87dfdf9e32169c2E
libvulkan_nouveau.so:_ZN3std2io8buffered9bufwriter18BufWriter$LT$W$GT$14write_all_cold17hddd8b1958153a6eaE
libvulkan_nouveau.so:_ZN3std2io8buffered9bufwriter18BufWriter$LT$W$GT$9flush_buf8BufGuard9remaining17h3c9ba52ef32ed984E
libvulkan_nouveau.so:_ZN3std2os2fd5owned10BorrowedFd18try_clone_to_owned17h33f486692b7cd2e9E
libvulkan_nouveau.so:_ZN3std2os2fd5owned7OwnedFd9try_clone17hb299ee375e4bf312E
libvulkan_nouveau.so:_ZN3std2os4unix3net4addr10SocketAddr10is_unnamed17h125fe2c1fb299f08E
libvulkan_nouveau.so:_ZN3std2os4unix3net4addr10SocketAddr11as_pathname17h6d35100a5d09983eE
libvulkan_nouveau.so:_ZN3std2os4unix3net4addr11sockaddr_un17h484820661b86e4c1E
libvulkan_nouveau.so:_ZN3std2os4unix3net6stream10UnixStream10local_addr17h9dae31e74b659392E
libvulkan_nouveau.so:_ZN3std2os4unix3net6stream10UnixStream10take_error17hfad24769ca039b36E
libvulkan_nouveau.so:_ZN3std2os4unix3net6stream10UnixStream12connect_addr17h4d60ae6b42ade373E
libvulkan_nouveau.so:_ZN3std2os4unix3net6stream10UnixStream12read_timeout17h443bb3d8f2d1716dE
libvulkan_nouveau.so:_ZN3std2os4unix3net6stream10UnixStream13write_timeout17hc2cd4f92c95af673E
libvulkan_nouveau.so:_ZN3std2os4unix3net6stream10UnixStream15set_nonblocking17ha0ae0e3ebb214566E
libvulkan_nouveau.so:_ZN3std2os4unix3net6stream10UnixStream16set_read_timeout17hcb4023517306a4d1E
libvulkan_nouveau.so:_ZN3std2os4unix3net6stream10UnixStream17set_write_timeout17h960e6609975c6ba2E
libvulkan_nouveau.so:_ZN3std2os4unix3net6stream10UnixStream28recv_vectored_with_ancillary17hcc8d62ae6b4939edE
libvulkan_nouveau.so:_ZN3std2os4unix3net6stream10UnixStream28send_vectored_with_ancillary17hd2088a89b15dab73E
libvulkan_nouveau.so:_ZN3std2os4unix3net6stream10UnixStream4pair17h21632252fcb678cbE
libvulkan_nouveau.so:_ZN3std2os4unix3net6stream10UnixStream4peek17h0ec79cc5705ad3e2E
libvulkan_nouveau.so:_ZN3std2os4unix3net6stream10UnixStream8set_mark17h227da3b2967b5199E
libvulkan_nouveau.so:_ZN3std2os4unix3net6stream10UnixStream8shutdown17h14f885f7dcc45216E
libvulkan_nouveau.so:_ZN3std2os4unix3net6stream10UnixStream9peer_addr17hb529b136d644c21aE
libvulkan_nouveau.so:_ZN3std2os4unix3net6stream10UnixStream9peer_cred17hd4e0119c3b8f3a9fE
libvulkan_nouveau.so:_ZN3std2os4unix3net6stream10UnixStream9try_clone17h3f4c4524fca981afE
libvulkan_nouveau.so:_ZN3std2os4unix3net8datagram12UnixDatagram10local_addr17h700701cc9098c015E
libvulkan_nouveau.so:_ZN3std2os4unix3net8datagram12UnixDatagram10take_error17h4a37ab2efdade01eE
libvulkan_nouveau.so:_ZN3std2os4unix3net8datagram12UnixDatagram12connect_addr17hd8daca2ce70b421bE
libvulkan_nouveau.so:_ZN3std2os4unix3net8datagram12UnixDatagram12read_timeout17hd0898196302206ceE
libvulkan_nouveau.so:_ZN3std2os4unix3net8datagram12UnixDatagram12send_to_addr17h996f5a2351223fdaE
libvulkan_nouveau.so:_ZN3std2os4unix3net8datagram12UnixDatagram13write_timeout17h5bdb411c6ae5e702E
libvulkan_nouveau.so:_ZN3std2os4unix3net8datagram12UnixDatagram15set_nonblocking17h011012a25b3fef78E
libvulkan_nouveau.so:_ZN3std2os4unix3net8datagram12UnixDatagram16set_read_timeout17h3befabeecf79a785E
libvulkan_nouveau.so:_ZN3std2os4unix3net8datagram12UnixDatagram17set_write_timeout17h745e791e1433dcf4E
libvulkan_nouveau.so:_ZN3std2os4unix3net8datagram12UnixDatagram28recv_vectored_with_ancillary17hda5ee936a0cc18bdE
libvulkan_nouveau.so:_ZN3std2os4unix3net8datagram12UnixDatagram28send_vectored_with_ancillary17h7dfd53c46852bca0E
libvulkan_nouveau.so:_ZN3std2os4unix3net8datagram12UnixDatagram33recv_vectored_with_ancillary_from17h3cb29c1cf7054cb9E
libvulkan_nouveau.so:_ZN3std2os4unix3net8datagram12UnixDatagram4pair17hf3bc57dc10dbfc7cE
libvulkan_nouveau.so:_ZN3std2os4unix3net8datagram12UnixDatagram4peek17heed939fb58102c9bE
libvulkan_nouveau.so:_ZN3std2os4unix3net8datagram12UnixDatagram4recv17h38425a0e20b7af7fE
libvulkan_nouveau.so:_ZN3std2os4unix3net8datagram12UnixDatagram4send17h5cb8037ac8e3f865E
libvulkan_nouveau.so:_ZN3std2os4unix3net8datagram12UnixDatagram7unbound17h562db4e2ce61c50fE
libvulkan_nouveau.so:_ZN3std2os4unix3net8datagram12UnixDatagram8set_mark17h2bfa0b76cbc85908E
libvulkan_nouveau.so:_ZN3std2os4unix3net8datagram12UnixDatagram8shutdown17h4b568f25436f0be0E
libvulkan_nouveau.so:_ZN3std2os4unix3net8datagram12UnixDatagram9bind_addr17he1c473e7d15f7945E
libvulkan_nouveau.so:_ZN3std2os4unix3net8datagram12UnixDatagram9peek_from17h02a47e315d669065E
libvulkan_nouveau.so:_ZN3std2os4unix3net8datagram12UnixDatagram9peer_addr17h602bff3080342b77E
libvulkan_nouveau.so:_ZN3std2os4unix3net8datagram12UnixDatagram9recv_from17h49033924961d96b7E
libvulkan_nouveau.so:_ZN3std2os4unix3net8datagram12UnixDatagram9try_clone17h60f66173debc920cE
libvulkan_nouveau.so:_ZN3std2os4unix3net8listener12UnixListener10local_addr17hfd7c527896a16e58E
libvulkan_nouveau.so:_ZN3std2os4unix3net8listener12UnixListener10take_error17h9a707545a367e15fE
libvulkan_nouveau.so:_ZN3std2os4unix3net8listener12UnixListener15set_nonblocking17h123a9e872192d310E
libvulkan_nouveau.so:_ZN3std2os4unix3net8listener12UnixListener6accept17hb9b176de604a1fffE
libvulkan_nouveau.so:_ZN3std2os4unix3net8listener12UnixListener9bind_addr17hc991ebef875d7a98E
libvulkan_nouveau.so:_ZN3std2os4unix3net8listener12UnixListener9try_clone17hdbcef0f96f968054E
libvulkan_nouveau.so:_ZN3std2os4unix3net9ancillary15SocketAncillary7add_fds17h9446e5f7de0b2a92E
libvulkan_nouveau.so:_ZN3std2os4unix3net9ancillary15SocketAncillary8messages17hde6e04e2caedc8c7E
libvulkan_nouveau.so:_ZN3std2os4unix3net9ancillary15SocketAncillary9add_creds17h765c325da4fd8a52E
libvulkan_nouveau.so:_ZN3std2os4unix3net9ancillary31send_vectored_with_ancillary_to17h394f0f7b3b2acd88E
libvulkan_nouveau.so:_ZN3std2os4unix7process9parent_id17h4aa5ac6da55ef88cE
libvulkan_nouveau.so:_ZN3std2os5linux7process5PidFd4kill17h23cb93e716d536e0E
libvulkan_nouveau.so:_ZN3std2os5linux7process5PidFd4wait17ha30b371644af391cE
libvulkan_nouveau.so:_ZN3std2os5linux7process5PidFd8try_wait17hf70a87834395971eE
libvulkan_nouveau.so:_ZN3std2rt19lang_start_internal17h22ce166a8d4d63b4E
libvulkan_nouveau.so:_ZN3std3env11current_dir17h8591d6d8696680e5E
libvulkan_nouveau.so:_ZN3std3env11current_exe17hdc542394645b16eaE
libvulkan_nouveau.so:_ZN3std3env4_var17h0dc372b4ae5b7704E
libvulkan_nouveau.so:_ZN3std3env4args17h75b98d5157be2c64E
libvulkan_nouveau.so:_ZN3std3env4vars17h4ba12220ec3ddf5fE
libvulkan_nouveau.so:_ZN3std3env7_var_os17h9e558e555b6d2fe1E
libvulkan_nouveau.so:_ZN3std3env7args_os17hd51a5e1044047ab6E
libvulkan_nouveau.so:_ZN3std3env7vars_os17h9ea0e6688d769d33E
libvulkan_nouveau.so:_ZN3std3env8home_dir17h94b55572a845fe9dE
libvulkan_nouveau.so:_ZN3std3env8temp_dir17hd17b5b57b0395234E
libvulkan_nouveau.so:_ZN3std3ffi6os_str5OsStr14into_os_string17h500c99a9cd0e6231E
libvulkan_nouveau.so:_ZN3std3ffi6os_str5OsStr18to_ascii_lowercase17h2b03d9c45a9f0ee1E
libvulkan_nouveau.so:_ZN3std3ffi6os_str5OsStr18to_ascii_uppercase17hb2105c73e250017dE
libvulkan_nouveau.so:_ZN3std3ffi6os_str8OsString17into_boxed_os_str17h484035edb36a81afE
libvulkan_nouveau.so:_ZN3std3ffi6os_str95_$LT$impl$u20$core..convert..TryFrom$LT$$RF$std..ffi..os_str..OsStr$GT$$u20$for$u20$$RF$str$GT$8try_from17hd71970260045d55fE
libvulkan_nouveau.so:_ZN3std3net11socket_addr136_$LT$impl$u20$std..sys_common..FromInner$LT$libc..unix..linux_like..sockaddr_in$GT$$u20$for$u20$core..net..socket_addr..SocketAddrV4$GT$10from_inner17heee1b050fcb56d05E
libvulkan_nouveau.so:_ZN3std3net11socket_addr136_$LT$impl$u20$std..sys_common..IntoInner$LT$libc..unix..linux_like..sockaddr_in$GT$$u20$for$u20$core..net..socket_addr..SocketAddrV4$GT$10into_inner17hab00eaa39069fed6E
libvulkan_nouveau.so:_ZN3std3net11socket_addr137_$LT$impl$u20$std..sys_common..FromInner$LT$libc..unix..linux_like..sockaddr_in6$GT$$u20$for$u20$core..net..socket_addr..SocketAddrV6$GT$10from_inner17h111ac598189ab0f9E
libvulkan_nouveau.so:_ZN3std3net11socket_addr137_$LT$impl$u20$std..sys_common..IntoInner$LT$libc..unix..linux_like..sockaddr_in6$GT$$u20$for$u20$core..net..socket_addr..SocketAddrV6$GT$10into_inner17h8af880f3c3a921d5E
libvulkan_nouveau.so:_ZN3std3net3tcp11TcpListener10local_addr17h02e4f3044bfe3729E
libvulkan_nouveau.so:_ZN3std3net3tcp11TcpListener10take_error17hc1d1eede5f26e41eE
libvulkan_nouveau.so:_ZN3std3net3tcp11TcpListener11set_only_v617h1b68205ac2082979E
libvulkan_nouveau.so:_ZN3std3net3tcp11TcpListener15set_nonblocking17h9c7a8e7e9f10fa7bE
libvulkan_nouveau.so:_ZN3std3net3tcp11TcpListener3ttl17h919a1a389040feabE
libvulkan_nouveau.so:_ZN3std3net3tcp11TcpListener6accept17hb00526cb061c7134E
libvulkan_nouveau.so:_ZN3std3net3tcp11TcpListener7only_v617h5a133e61c124930fE
libvulkan_nouveau.so:_ZN3std3net3tcp11TcpListener7set_ttl17h4bceb4ba658ac800E
libvulkan_nouveau.so:_ZN3std3net3tcp11TcpListener9try_clone17h7dc1ee056024f9daE
libvulkan_nouveau.so:_ZN3std3net3tcp9TcpStream10local_addr17hd85e908063718ca7E
libvulkan_nouveau.so:_ZN3std3net3tcp9TcpStream10set_linger17h96dc816b46d12eefE
libvulkan_nouveau.so:_ZN3std3net3tcp9TcpStream10take_error17h7afc68fb407c1b38E
libvulkan_nouveau.so:_ZN3std3net3tcp9TcpStream11set_nodelay17h6c2566f01af31e69E
libvulkan_nouveau.so:_ZN3std3net3tcp9TcpStream12read_timeout17h241488c9792f9adbE
libvulkan_nouveau.so:_ZN3std3net3tcp9TcpStream13write_timeout17hd3cbfb6f85277648E
libvulkan_nouveau.so:_ZN3std3net3tcp9TcpStream15connect_timeout17hb15b93d8bac6d9f1E
libvulkan_nouveau.so:_ZN3std3net3tcp9TcpStream15set_nonblocking17h897acb78a6b9cf3dE
libvulkan_nouveau.so:_ZN3std3net3tcp9TcpStream16set_read_timeout17h7444deb3ff513a59E
libvulkan_nouveau.so:_ZN3std3net3tcp9TcpStream17set_write_timeout17hda790718d1c10135E
libvulkan_nouveau.so:_ZN3std3net3tcp9TcpStream3ttl17h30648bf82096b71dE
libvulkan_nouveau.so:_ZN3std3net3tcp9TcpStream4peek17h3398ab092f71368cE
libvulkan_nouveau.so:_ZN3std3net3tcp9TcpStream6linger17h0dc03876225eb6baE
libvulkan_nouveau.so:_ZN3std3net3tcp9TcpStream7nodelay17h7f5e2736170c2315E
libvulkan_nouveau.so:_ZN3std3net3tcp9TcpStream7set_ttl17h4040c454ab43be9dE
libvulkan_nouveau.so:_ZN3std3net3tcp9TcpStream8shutdown17h2ef05d0b3d5773c7E
libvulkan_nouveau.so:_ZN3std3net3tcp9TcpStream9peer_addr17h8ba91dadbb0513f7E
libvulkan_nouveau.so:_ZN3std3net3tcp9TcpStream9try_clone17hca5e73c33d6ee367E
libvulkan_nouveau.so:_ZN3std3net3udp9UdpSocket10local_addr17h6f5181d4e442b364E
libvulkan_nouveau.so:_ZN3std3net3udp9UdpSocket10take_error17he5305ee6bec424e6E
libvulkan_nouveau.so:_ZN3std3net3udp9UdpSocket12read_timeout17h60fa0997ef8f95f6E
libvulkan_nouveau.so:_ZN3std3net3udp9UdpSocket13set_broadcast17ha76d1808da55734fE
libvulkan_nouveau.so:_ZN3std3net3udp9UdpSocket13write_timeout17hee94a4c7f050f672E
libvulkan_nouveau.so:_ZN3std3net3udp9UdpSocket15set_nonblocking17h8fe082ad54cad972E
libvulkan_nouveau.so:_ZN3std3net3udp9UdpSocket16multicast_ttl_v417h482f135a0842f79dE
libvulkan_nouveau.so:_ZN3std3net3udp9UdpSocket16set_read_timeout17h17c9def6afc5594bE
libvulkan_nouveau.so:_ZN3std3net3udp9UdpSocket17join_multicast_v417h103a3badf2fe8dcaE
libvulkan_nouveau.so:_ZN3std3net3udp9UdpSocket17join_multicast_v617h932404cb0141afb5E
libvulkan_nouveau.so:_ZN3std3net3udp9UdpSocket17multicast_loop_v417hc3c7dfe21b032fedE
libvulkan_nouveau.so:_ZN3std3net3udp9UdpSocket17multicast_loop_v617h4f51406350b4fa4bE
libvulkan_nouveau.so:_ZN3std3net3udp9UdpSocket17set_write_timeout17heac95471e9c8e31dE
libvulkan_nouveau.so:_ZN3std3net3udp9UdpSocket18leave_multicast_v417h7b5110d388298712E
libvulkan_nouveau.so:_ZN3std3net3udp9UdpSocket18leave_multicast_v617h43e1ee511e45da9fE
libvulkan_nouveau.so:_ZN3std3net3udp9UdpSocket20set_multicast_ttl_v417hcd13e2da8d80dc42E
libvulkan_nouveau.so:_ZN3std3net3udp9UdpSocket21set_multicast_loop_v417h331818c98c27694aE
libvulkan_nouveau.so:_ZN3std3net3udp9UdpSocket21set_multicast_loop_v617h03914e522d049a73E
libvulkan_nouveau.so:_ZN3std3net3udp9UdpSocket3ttl17h6462f8920876cad8E
libvulkan_nouveau.so:_ZN3std3net3udp9UdpSocket4peek17hc175d931667f96a1E
libvulkan_nouveau.so:_ZN3std3net3udp9UdpSocket4recv17hbbed60dffab83d19E
libvulkan_nouveau.so:_ZN3std3net3udp9UdpSocket4send17ha9ceee9bbca12e79E
libvulkan_nouveau.so:_ZN3std3net3udp9UdpSocket7set_ttl17h222a734e88444df6E
libvulkan_nouveau.so:_ZN3std3net3udp9UdpSocket9broadcast17h3a83d548b3450e1cE
libvulkan_nouveau.so:_ZN3std3net3udp9UdpSocket9peek_from17ha9c6e4825d695a04E
libvulkan_nouveau.so:_ZN3std3net3udp9UdpSocket9peer_addr17h74f3abc78bd93ca2E
libvulkan_nouveau.so:_ZN3std3net3udp9UdpSocket9recv_from17h560460eed9ca313dE
libvulkan_nouveau.so:_ZN3std3net3udp9UdpSocket9try_clone17hdec94614a0578e7bE
libvulkan_nouveau.so:_ZN3std3sys12thread_local11destructors10linux_like8register17h0135971814cb3908E
libvulkan_nouveau.so:_ZN3std3sys14anonymous_pipe4unix76_$LT$impl$u20$std..os..fd..owned..AsFd$u20$for$u20$std..pipe..PipeReader$GT$5as_fd17h9866bb7b6723245bE
libvulkan_nouveau.so:_ZN3std3sys14anonymous_pipe4unix76_$LT$impl$u20$std..os..fd..owned..AsFd$u20$for$u20$std..pipe..PipeWriter$GT$5as_fd17hccccf04248ed139bE
libvulkan_nouveau.so:_ZN3std3sys14anonymous_pipe4unix79_$LT$impl$u20$std..os..fd..raw..FromRawFd$u20$for$u20$std..pipe..PipeReader$GT$11from_raw_fd17h52ff89d9747f8820E
libvulkan_nouveau.so:_ZN3std3sys14anonymous_pipe4unix79_$LT$impl$u20$std..os..fd..raw..FromRawFd$u20$for$u20$std..pipe..PipeWriter$GT$11from_raw_fd17h2e74577ba44b8c8eE
libvulkan_nouveau.so:_ZN3std3sys3pal4unix11kernel_copy15sendfile_splice17h9e2d0c7836ef4697E
libvulkan_nouveau.so:_ZN3std3sys3pal4unix11kernel_copy18copy_regular_files17h9ad16db7554944a4E
libvulkan_nouveau.so:_ZN3std3sys3pal4unix14abort_internal17he0034f16914aaefbE
libvulkan_nouveau.so:_ZN3std3sys3pal4unix2fd8FileDesc11read_to_end17hc6114ac5c173aaaaE
libvulkan_nouveau.so:_ZN3std3sys3pal4unix2fd8FileDesc11set_cloexec17h4b74cd873835f869E
libvulkan_nouveau.so:_ZN3std3sys3pal4unix2fd8FileDesc13read_vectored17hd0b4e8d8cca3b75fE
libvulkan_nouveau.so:_ZN3std3sys3pal4unix2fd8FileDesc14write_vectored17h30d18e7bc34e262cE
libvulkan_nouveau.so:_ZN3std3sys3pal4unix2fd8FileDesc15set_nonblocking17hba55b292fa4dfcaeE
libvulkan_nouveau.so:_ZN3std3sys3pal4unix2fd8FileDesc16read_vectored_at17h1774dd93af2a51a2E
libvulkan_nouveau.so:_ZN3std3sys3pal4unix2fd8FileDesc17write_vectored_at17h84994abb13752bf9E
libvulkan_nouveau.so:_ZN3std3sys3pal4unix2fd8FileDesc4read17h1efa6eeaf32b37eeE
libvulkan_nouveau.so:_ZN3std3sys3pal4unix2fd8FileDesc5write17h39d2359e961b1be4E
libvulkan_nouveau.so:_ZN3std3sys3pal4unix2fd8FileDesc7read_at17h5fdbca7e792e6230E
libvulkan_nouveau.so:_ZN3std3sys3pal4unix2fd8FileDesc8read_buf17hc879f40e62f8d505E
libvulkan_nouveau.so:_ZN3std3sys3pal4unix2fd8FileDesc8write_at17h0940fd4197711aadE
libvulkan_nouveau.so:_ZN3std3sys3pal4unix2fs12canonicalize17h573d27a9b23c5cc5E
libvulkan_nouveau.so:_ZN3std3sys3pal4unix2fs15remove_dir_impl14remove_dir_all17h11cbb60cf6284637E
libvulkan_nouveau.so:_ZN3std3sys3pal4unix2fs4File13read_vectored17h4c32ca486ed34973E
libvulkan_nouveau.so:_ZN3std3sys3pal4unix2fs4File4read17h145889041d2b0b85E
libvulkan_nouveau.so:_ZN3std3sys3pal4unix2fs4File8read_buf17h72434e5817185a5dE
libvulkan_nouveau.so:_ZN3std3sys3pal4unix2fs4copy17h1bf49ba9d573d632E
libvulkan_nouveau.so:_ZN3std3sys3pal4unix2fs4link17h75e39080e53bfa93E
libvulkan_nouveau.so:_ZN3std3sys3pal4unix2fs4stat17h2076de406a96e788E
libvulkan_nouveau.so:_ZN3std3sys3pal4unix2fs5chown17h469cd9dafb3c3ca0E
libvulkan_nouveau.so:_ZN3std3sys3pal4unix2fs5lstat17hb5dab9f93345aa2aE
libvulkan_nouveau.so:_ZN3std3sys3pal4unix2fs5rmdir17h6ec9b89ceead3af8E
libvulkan_nouveau.so:_ZN3std3sys3pal4unix2fs6chroot17hc3a8b93f7080dc86E
libvulkan_nouveau.so:_ZN3std3sys3pal4unix2fs6fchown17haa3924c14346e1fcE
libvulkan_nouveau.so:_ZN3std3sys3pal4unix2fs6lchown17he5e83a5f37c64492E
libvulkan_nouveau.so:_ZN3std3sys3pal4unix2fs6rename17hd9395c9e9360e300E
libvulkan_nouveau.so:_ZN3std3sys3pal4unix2fs6unlink17hc4d5811e0e15d811E
libvulkan_nouveau.so:_ZN3std3sys3pal4unix2fs7readdir17h635778791360927eE
libvulkan_nouveau.so:_ZN3std3sys3pal4unix2fs7symlink17hda31074ca573a453E
libvulkan_nouveau.so:_ZN3std3sys3pal4unix2fs8readlink17h37b6f14e9e7e7bbdE
libvulkan_nouveau.so:_ZN3std3sys3pal4unix2fs8set_perm17h510b4c1ba276c8d5E
libvulkan_nouveau.so:_ZN3std3sys3pal4unix2os11split_paths13bytes_to_path17h8fe575b5e4ca7d35E
libvulkan_nouveau.so:_ZN3std3sys3pal4unix2os5chdir17hd1148984c90e0062E
libvulkan_nouveau.so:_ZN3std3sys3pal4unix2os5errno17hb4e6540bd46e92adE
libvulkan_nouveau.so:_ZN3std3sys3pal4unix2os6setenv17hba9590c767157387E
libvulkan_nouveau.so:_ZN3std3sys3pal4unix2os8unsetenv17h215406984fac7326E
libvulkan_nouveau.so:_ZN3std3sys3pal4unix3net6Socket7new_raw17hfd8eda978a5f3f53E
libvulkan_nouveau.so:_ZN3std3sys3pal4unix4args3imp15ARGV_INIT_ARRAY12init_wrapper17h29e827225b0ddcc2E
libvulkan_nouveau.so:_ZN3std3sys3pal4unix4pipe9anon_pipe17h8bb2e57318d30b00E
libvulkan_nouveau.so:_ZN3std3sys3pal4unix5futex10futex_wake17hb9b204cbe092f6e4E
libvulkan_nouveau.so:_ZN3std3sys3pal4unix5futex14futex_wake_all17hb19d9cd44f94ccf7E
libvulkan_nouveau.so:_ZN3std3sys3pal4unix6thread6Thread3new17h1496875d6bf26f01E
libvulkan_nouveau.so:_ZN3std3sys3pal4unix6thread6Thread4join17h1e5dbf729b54f0eeE
libvulkan_nouveau.so:_ZN3std3sys3pal4unix6thread6Thread8set_name17h00175aaf21cb13e7E
libvulkan_nouveau.so:_ZN3std3sys3pal4unix7process13process_inner15linux_child_ext83_$LT$impl$u20$std..os..linux..process..ChildExt$u20$for$u20$std..process..Child$GT$10into_pidfd17hb452e8fc4a465f88E
libvulkan_nouveau.so:_ZN3std3sys3pal4unix7process13process_inner15linux_child_ext83_$LT$impl$u20$std..os..linux..process..ChildExt$u20$for$u20$std..process..Child$GT$5pidfd17hc1442c112d61fe4bE
libvulkan_nouveau.so:_ZN3std3sys3pal4unix7process14process_common7Command3arg17ha450e71aa2a990deE
libvulkan_nouveau.so:_ZN3std3sys3pal4unix7process14process_common7Command3cwd17h4490e14331db165fE
libvulkan_nouveau.so:_ZN3std3sys3pal4unix7process14process_common7Command3new17h03cfa27082dc9fd4E
libvulkan_nouveau.so:_ZN3std3sys3pal4unix7process14process_common7Command5stdin17h7a95cf6784254ae8E
libvulkan_nouveau.so:_ZN3std3sys3pal4unix7process14process_common7Command6stderr17h8de55432d6cd6015E
libvulkan_nouveau.so:_ZN3std3sys3pal4unix7process14process_common7Command6stdout17hedc62b36127d8771E
libvulkan_nouveau.so:_ZN3std3sys3pal4unix7process14process_common7Command8pre_exec17h9b5434a718b6d97dE
libvulkan_nouveau.so:_ZN3std3sys3pal4unix7process14process_common7Command9set_arg_017h68fbc63451a58c83E
libvulkan_nouveau.so:_ZN3std3sys4path4unix8absolute17hc4b85930c172925bE
libvulkan_nouveau.so:_ZN3std3sys4sync4once5futex4Once4call17h2b5cee4b5fac4198E
libvulkan_nouveau.so:_ZN3std3sys4sync5mutex5futex5Mutex14lock_contended17h594f5e4df3d73773E
libvulkan_nouveau.so:_ZN3std3sys4sync5mutex5futex5Mutex4wake17h05a653903f93af13E
libvulkan_nouveau.so:_ZN3std3sys4sync6rwlock5futex6RwLock14read_contended17h5d3fc8fca3bc98cdE
libvulkan_nouveau.so:_ZN3std3sys4sync6rwlock5futex6RwLock15write_contended17h2439bea26d905538E
libvulkan_nouveau.so:_ZN3std3sys4sync6rwlock5futex6RwLock22wake_writer_or_readers17h02a61c522ad72713E
libvulkan_nouveau.so:_ZN3std3sys4sync7condvar5futex7Condvar12wait_timeout17h07aa05b6366c2a58E
libvulkan_nouveau.so:_ZN3std3sys4sync7condvar5futex7Condvar4wait17h3675da76a2d486ceE
libvulkan_nouveau.so:_ZN3std3sys5alloc16realloc_fallback17h856f66b622cde506E
libvulkan_nouveau.so:_ZN3std3sys6os_str5bytes3Buf10push_slice17hce176e9592475d19E
libvulkan_nouveau.so:_ZN3std3sys6os_str5bytes3Buf11into_string17h3ff3712266147cdeE
libvulkan_nouveau.so:_ZN3std3sys6os_str5bytes5Slice10clone_into17h073c0cb5e52210cbE
libvulkan_nouveau.so:_ZN3std3sys6os_str5bytes5Slice15to_string_lossy17h67232887b8508762E
libvulkan_nouveau.so:_ZN3std3sys6os_str5bytes5Slice21check_public_boundary9slow_path17h056dcb5fecb88acaE
libvulkan_nouveau.so:_ZN3std3sys6os_str5bytes5Slice6to_str17h02d25d0161cdfed3E
libvulkan_nouveau.so:_ZN3std3sys6os_str5bytes5Slice8to_owned17h75663646354e2ec1E
libvulkan_nouveau.so:_ZN3std3sys6os_str5bytes5Slice9empty_box17h7876b6a64ca21c9bE
libvulkan_nouveau.so:_ZN3std3sys6random5linux19hashmap_random_keys17hcb1b6d621ffc816bE
libvulkan_nouveau.so:_ZN3std3sys9backtrace26__rust_end_short_backtrace17h1d0de99046458a64E
libvulkan_nouveau.so:_ZN3std3sys9backtrace26__rust_end_short_backtrace17h703e12096330eb78E
libvulkan_nouveau.so:_ZN3std3sys9backtrace4lock17h2dd7da9ffb2ef314E
libvulkan_nouveau.so:_ZN3std4path10Components7as_path17h53f06c7c7d104102E
libvulkan_nouveau.so:_ZN3std4path117_$LT$impl$u20$core..convert..From$LT$$RF$std..path..Path$GT$$u20$for$u20$alloc..boxed..Box$LT$std..path..Path$GT$$GT$4from17h15e6cf21aa30f462E
libvulkan_nouveau.so:_ZN3std4path125_$LT$impl$u20$core..convert..From$LT$$RF$mut$u20$std..path..Path$GT$$u20$for$u20$alloc..boxed..Box$LT$std..path..Path$GT$$GT$4from17h8f581adb7c60ba6dE
libvulkan_nouveau.so:_ZN3std4path18compare_components17ha6941f4296622b0eE
libvulkan_nouveau.so:_ZN3std4path4Path10_ends_with17h3871d5f4ae354f46E
libvulkan_nouveau.so:_ZN3std4path4Path10components17h4f434173c179c9ffE
libvulkan_nouveau.so:_ZN3std4path4Path10is_symlink17h860348bfe3fdf20cE
libvulkan_nouveau.so:_ZN3std4path4Path11file_prefix17ha47c4609cd8157ffE
libvulkan_nouveau.so:_ZN3std4path4Path11is_absolute17h4c7231ef07ca4ea7E
libvulkan_nouveau.so:_ZN3std4path4Path11to_path_buf17h0d5fa6efe82d4d58E
libvulkan_nouveau.so:_ZN3std4path4Path12_starts_with17h40091f4d4a8e7e56E
libvulkan_nouveau.so:_ZN3std4path4Path13_strip_prefix17h2ee866213f4bad19E
libvulkan_nouveau.so:_ZN3std4path4Path13into_path_buf17h7286a3688d3e2408E
libvulkan_nouveau.so:_ZN3std4path4Path15_with_extension17h963b75e512d9c3ffE
libvulkan_nouveau.so:_ZN3std4path4Path15_with_file_name17hd507fb137799b1f2E
libvulkan_nouveau.so:_ZN3std4path4Path5_join17hd0585aed85e77587E
libvulkan_nouveau.so:_ZN3std4path4Path6is_dir17h9b5ffb814d919aedE
libvulkan_nouveau.so:_ZN3std4path4Path6parent17h2628d1256ee34aaeE
libvulkan_nouveau.so:_ZN3std4path4Path7is_file17h81af3e5bcf6ac491E
libvulkan_nouveau.so:_ZN3std4path4Path9extension17hcd45e01179d2ae60E
libvulkan_nouveau.so:_ZN3std4path4Path9file_name17hba8f8cab0efd80f8E
libvulkan_nouveau.so:_ZN3std4path4Path9file_stem17h091591dfca7feef4E
libvulkan_nouveau.so:_ZN3std4path7PathBuf14_add_extension17ha82a18de22321e73E
libvulkan_nouveau.so:_ZN3std4path7PathBuf14_set_extension17hc0ead02268706e8aE
libvulkan_nouveau.so:_ZN3std4path7PathBuf14_set_file_name17h92910483e62d5847E
libvulkan_nouveau.so:_ZN3std4path7PathBuf3pop17h9d89906d587125c9E
libvulkan_nouveau.so:_ZN3std4path7PathBuf5_push17h1fdb44ac9a3b894eE
libvulkan_nouveau.so:_ZN3std4pipe10PipeReader9try_clone17h0d7f85284c5c9763E
libvulkan_nouveau.so:_ZN3std4pipe10PipeWriter9try_clone17h605510485b4bc6a2E
libvulkan_nouveau.so:_ZN3std4sync4mpmc7context7Context3new17h1ee3d256d3062d6dE
libvulkan_nouveau.so:_ZN3std4sync6poison4once4Once10wait_force17h7041826f8c4206a4E
libvulkan_nouveau.so:_ZN3std4sync6poison4once4Once4wait17h99994ff33d178530E
libvulkan_nouveau.so:_ZN3std4sync6poison7condvar7Condvar10notify_all17h73a3f70bb1c94a16E
libvulkan_nouveau.so:_ZN3std4sync6poison7condvar7Condvar10notify_one17hd4258cdc7f0bebd2E
libvulkan_nouveau.so:_ZN3std4sync7barrier7Barrier4wait17h0f5104fc7a2ba2b8E
libvulkan_nouveau.so:_ZN3std4sync9lazy_lock14panic_poisoned17hd24bdcad97130869E
libvulkan_nouveau.so:_ZN3std4time10SystemTime11checked_add17h0ee6ae34009666e9E
libvulkan_nouveau.so:_ZN3std4time10SystemTime11checked_sub17h502faa3a09a46a56E
libvulkan_nouveau.so:_ZN3std4time10SystemTime14duration_since17h2be161ea63af474bE
libvulkan_nouveau.so:_ZN3std4time10SystemTime3now17hb30c54f3b3b1e8d6E
libvulkan_nouveau.so:_ZN3std4time10SystemTime7elapsed17h6465bea232c0c74dE
libvulkan_nouveau.so:_ZN3std4time7Instant11checked_add17h1025cf83fbb8990bE
libvulkan_nouveau.so:_ZN3std4time7Instant11checked_sub17hda8ac5c67bfcf5ddE
libvulkan_nouveau.so:_ZN3std4time7Instant14duration_since17hb5b34debfbf94a3aE
libvulkan_nouveau.so:_ZN3std4time7Instant22checked_duration_since17h024670c7c83b6f9aE
libvulkan_nouveau.so:_ZN3std4time7Instant25saturating_duration_since17h32611f1986cb26bfE
libvulkan_nouveau.so:_ZN3std4time7Instant3now17h6e442345e468f744E
libvulkan_nouveau.so:_ZN3std4time7Instant7elapsed17h858b4b215336e157E
libvulkan_nouveau.so:_ZN3std5alloc20set_alloc_error_hook17h9f619746a5c52de5E
libvulkan_nouveau.so:_ZN3std5alloc21take_alloc_error_hook17h1e406e53a00e5a41E
libvulkan_nouveau.so:_ZN3std5alloc8rust_oom17h3a4365b416192588E
libvulkan_nouveau.so:_ZN3std5panic12always_abort17hd7ea32d35a5d2d8dE
libvulkan_nouveau.so:_ZN3std5panic13resume_unwind17h419cb8a8b7460879E
libvulkan_nouveau.so:_ZN3std5panic19get_backtrace_style17h4f8d9b4cc7f0f442E
libvulkan_nouveau.so:_ZN3std5panic19set_backtrace_style17hb721f2157d6290c5E
libvulkan_nouveau.so:_ZN3std6thread11sleep_until17hb81e4d20f60c9cf4E
libvulkan_nouveau.so:_ZN3std6thread12park_timeout17h1eccf95d2503f4ebE
libvulkan_nouveau.so:_ZN3std6thread15park_timeout_ms17h8648acd336b6a67aE
libvulkan_nouveau.so:_ZN3std6thread21available_parallelism17he8e823055f1ac777E
libvulkan_nouveau.so:_ZN3std6thread4park17ha951efa9c9ca520aE
libvulkan_nouveau.so:_ZN3std6thread5sleep17h88f329dc35d87608E
libvulkan_nouveau.so:_ZN3std6thread6Thread11new_unnamed17h4324ce12b00d6022E
libvulkan_nouveau.so:_ZN3std6thread6Thread12park_timeout17h627b44b74e661ff9E
libvulkan_nouveau.so:_ZN3std6thread6Thread3new17hd02a9e412621c4bbE
libvulkan_nouveau.so:_ZN3std6thread6Thread4name17he10d9b3bc1a81f02E
libvulkan_nouveau.so:_ZN3std6thread6Thread4park17h3e01e619bb058e0aE
libvulkan_nouveau.so:_ZN3std6thread6Thread5cname17h8208fe06c6263601E
libvulkan_nouveau.so:_ZN3std6thread6Thread8from_raw17h8ad81f0835703cafE
libvulkan_nouveau.so:_ZN3std6thread6scoped9ScopeData29decrement_num_running_threads17hce874bd31c3f9ea6E
libvulkan_nouveau.so:_ZN3std6thread6scoped9ScopeData29increment_num_running_threads17hc2e39cb7888e21e7E
libvulkan_nouveau.so:_ZN3std6thread7Builder4name17hcf9a8753b784e4a8E
libvulkan_nouveau.so:_ZN3std6thread7current11set_current17h539447bb957e7414E
libvulkan_nouveau.so:_ZN3std6thread7current18current_or_unnamed17hfcec8c85006cd85aE
libvulkan_nouveau.so:_ZN3std6thread7current7current17h5064aca360335e6cE
libvulkan_nouveau.so:_ZN3std6thread8ThreadId3new17h272fa9f77391b502E
libvulkan_nouveau.so:_ZN3std6thread8sleep_ms17h495de1133ee1da26E
libvulkan_nouveau.so:_ZN3std6thread9spawnhook15ChildSpawnHooks3run17h3278965f5f32fb04E
libvulkan_nouveau.so:_ZN3std6thread9spawnhook15run_spawn_hooks17hccc7b7764a391b72E
libvulkan_nouveau.so:_ZN3std6thread9yield_now17h61330669349dc4cbE
libvulkan_nouveau.so:_ZN3std7process10ExitStatus7exit_ok17h443a4b7d0754cf55E
libvulkan_nouveau.so:_ZN3std7process15ExitStatusError12code_nonzero17hd60d4964e0dbeb2aE
libvulkan_nouveau.so:_ZN3std7process15ExitStatusError4code17h7b920d39ecf82117E
libvulkan_nouveau.so:_ZN3std7process2id17ha69c0741309c3e98E
libvulkan_nouveau.so:_ZN3std7process4exit17h8c51e151df8f9243E
libvulkan_nouveau.so:_ZN3std7process5Child16wait_with_output17h9442a52a3a454eecE
libvulkan_nouveau.so:_ZN3std7process5Child4kill17h60a5ba75b7983299E
libvulkan_nouveau.so:_ZN3std7process5Child4wait17h68c814e029fb5ee7E
libvulkan_nouveau.so:_ZN3std7process5Child8try_wait17h84cf15a7bebf28bfE
libvulkan_nouveau.so:_ZN3std7process5abort17h6660e521c6625c23E
libvulkan_nouveau.so:_ZN3std7process7Command11get_program17h119c3b219c2af0c0E
libvulkan_nouveau.so:_ZN3std7process7Command15get_current_dir17hf26bde01b6517358E
libvulkan_nouveau.so:_ZN3std7process7Command5spawn17hf8579c5d90e8746cE
libvulkan_nouveau.so:_ZN3std7process7Command6output17h67ffe6b1928f7c5aE
libvulkan_nouveau.so:_ZN3std7process7Command6status17hdbba71a259b3cefcE
libvulkan_nouveau.so:_ZN3std7process7Command8get_args17h484533cb9ebafc2fE
libvulkan_nouveau.so:_ZN3std7process7Command9env_clear17h1a00ffe844fdcaa4E
libvulkan_nouveau.so:_ZN3std7process8ExitCode12exit_process17hb47620214e13b0deE
libvulkan_nouveau.so:_ZN3std9backtrace9Backtrace13force_capture17hbb12159d0d399816E
libvulkan_nouveau.so:_ZN3std9backtrace9Backtrace6frames17h4aedd39fe8e8f5d3E
libvulkan_nouveau.so:_ZN3std9backtrace9Backtrace7capture17h302a3ed0bcbf3cdfE
libvulkan_nouveau.so:_ZN3std9panicking11begin_panic17h481e07ac96919e2bE
libvulkan_nouveau.so:_ZN3std9panicking11panic_count16set_always_abort17h50b3ecba0cdfe5d4E
libvulkan_nouveau.so:_ZN3std9panicking11panic_count17is_zero_slow_path17h84d5b824f3b2898cE
libvulkan_nouveau.so:_ZN3std9panicking11panic_count19finished_panic_hook17h5527c5a8b42d8dbcE
libvulkan_nouveau.so:_ZN3std9panicking11panic_count8decrease17h27917fd9443abf9dE
libvulkan_nouveau.so:_ZN3std9panicking11panic_count8increase17h8d8df89071030ad0E
libvulkan_nouveau.so:_ZN3std9panicking11panic_count9get_count17h6704e58b5364bc4eE
libvulkan_nouveau.so:_ZN3std9panicking12default_hook17h411af785078ff8a1E
libvulkan_nouveau.so:_ZN3std9panicking14payload_as_str17heb0d6f3d4ef366bfE
libvulkan_nouveau.so:_ZN3std9panicking20rust_panic_with_hook17hd85b24a3d076e447E
libvulkan_nouveau.so:_ZN3std9panicking3try7cleanup17h923076fb6aa93b47E
libvulkan_nouveau.so:_ZN3std9panicking8set_hook17hc60d4bc1a8361735E
libvulkan_nouveau.so:_ZN3std9panicking9take_hook17h0cc962f023ff47a2E
libvulkan_nouveau.so:_ZN40_$LT$str$u20$as$u20$core..fmt..Debug$GT$3fmt17h8eee0b903839ea4dE
libvulkan_nouveau.so:_ZN41_$LT$char$u20$as$u20$core..fmt..Debug$GT$3fmt17h02b26548ea1633f6E
libvulkan_nouveau.so:_ZN42_$LT$$RF$T$u20$as$u20$core..fmt..Debug$GT$3fmt17h13f7131feb72fdfbE
libvulkan_nouveau.so:_ZN42_$LT$$RF$T$u20$as$u20$core..fmt..Debug$GT$3fmt17h3fd4aac41d0f3b79E
libvulkan_nouveau.so:_ZN42_$LT$$RF$T$u20$as$u20$core..fmt..Debug$GT$3fmt17h648ace63e7d0b2c1E
libvulkan_nouveau.so:_ZN42_$LT$$RF$T$u20$as$u20$core..fmt..Debug$GT$3fmt17h70e5074ce5729531E
libvulkan_nouveau.so:_ZN42_$LT$$RF$T$u20$as$u20$core..fmt..Debug$GT$3fmt17h7febcecff1356adcE
libvulkan_nouveau.so:_ZN42_$LT$$RF$T$u20$as$u20$core..fmt..Debug$GT$3fmt17hae6a2b2223377beeE
libvulkan_nouveau.so:_ZN42_$LT$$RF$T$u20$as$u20$core..fmt..Debug$GT$3fmt17he7bd24f3995639a5E
libvulkan_nouveau.so:_ZN42_$LT$str$u20$as$u20$core..fmt..Display$GT$3fmt17h681229d22c7621b2E
libvulkan_nouveau.so:_ZN43_$LT$bool$u20$as$u20$core..fmt..Display$GT$3fmt17h6b60684d11959f3eE
libvulkan_nouveau.so:_ZN43_$LT$char$u20$as$u20$core..fmt..Display$GT$3fmt17h7a60d8c16a33c41aE
libvulkan_nouveau.so:_ZN43_$LT$u8$u20$as$u20$bitview..BitViewable$GT$17get_bit_range_u6417h32f5be39fe943afaE
libvulkan_nouveau.so:_ZN43_$LT$u8$u20$as$u20$bitview..BitViewable$GT$4bits17h10b343b112b12317E
libvulkan_nouveau.so:_ZN44_$LT$u16$u20$as$u20$bitview..BitViewable$GT$17get_bit_range_u6417h924d9e5dafbe27d3E
libvulkan_nouveau.so:_ZN44_$LT$u16$u20$as$u20$bitview..BitViewable$GT$4bits17h5a0d5a636e28af12E
libvulkan_nouveau.so:_ZN44_$LT$u32$u20$as$u20$bitview..BitViewable$GT$17get_bit_range_u6417h34188ed90a384bfeE
libvulkan_nouveau.so:_ZN44_$LT$u32$u20$as$u20$bitview..BitViewable$GT$4bits17h305eed9513f57bd8E
libvulkan_nouveau.so:_ZN44_$LT$u64$u20$as$u20$bitview..BitViewable$GT$17get_bit_range_u6417h5fee3b873e381b34E
libvulkan_nouveau.so:_ZN44_$LT$u64$u20$as$u20$bitview..BitViewable$GT$4bits17he8283dc5d9d4ec74E
libvulkan_nouveau.so:_ZN46_$LT$u8$u20$as$u20$bitview..BitMutViewable$GT$17set_bit_range_u6417h028f82e45f4e5afcE
libvulkan_nouveau.so:_ZN47_$LT$std..fs..File$u20$as$u20$std..io..Read$GT$11read_to_end17h96d3fc354bd9434aE
libvulkan_nouveau.so:_ZN47_$LT$std..fs..File$u20$as$u20$std..io..Read$GT$13read_vectored17h9fba31d22fe94817E
libvulkan_nouveau.so:_ZN47_$LT$std..fs..File$u20$as$u20$std..io..Read$GT$14read_to_string17haa236ac96b2e0f9cE
libvulkan_nouveau.so:_ZN47_$LT$std..fs..File$u20$as$u20$std..io..Read$GT$4read17h64da75ef0ff72eb4E
libvulkan_nouveau.so:_ZN47_$LT$std..fs..File$u20$as$u20$std..io..Read$GT$8read_buf17hf67445f6e2313899E
libvulkan_nouveau.so:_ZN47_$LT$std..fs..File$u20$as$u20$std..io..Seek$GT$4seek17hdce9e20534c4e7bbE
libvulkan_nouveau.so:_ZN47_$LT$u16$u20$as$u20$bitview..BitMutViewable$GT$17set_bit_range_u6417hf5b62dd00861e35eE
libvulkan_nouveau.so:_ZN47_$LT$u32$u20$as$u20$bitview..BitMutViewable$GT$17set_bit_range_u6417h1a09e7768cc80a50E
libvulkan_nouveau.so:_ZN47_$LT$u64$u20$as$u20$bitview..BitMutViewable$GT$17set_bit_range_u6417hbabc543bd46b0b91E
libvulkan_nouveau.so:_ZN48_$LT$$u5b$T$u5d$$u20$as$u20$core..fmt..Debug$GT$3fmt17h5a480763bd859256E
libvulkan_nouveau.so:_ZN48_$LT$std..fs..File$u20$as$u20$std..io..Write$GT$14write_vectored17ha644a2b72162262eE
libvulkan_nouveau.so:_ZN48_$LT$std..fs..File$u20$as$u20$std..io..Write$GT$5write17h8efc3129624ed02fE
libvulkan_nouveau.so:_ZN49_$LT$u8$u20$as$u20$core..num..bignum..FullOps$GT$12full_div_rem17hcf10d46f01c87de4E
libvulkan_nouveau.so:_ZN4core10intrinsics3mir11PtrMetadata19panic_cold_explicit17h38c2e362b2e10413E
libvulkan_nouveau.so:_ZN4core10intrinsics3mir11StorageDead19panic_cold_explicit17h40173b1b5238f1d2E
libvulkan_nouveau.so:_ZN4core10intrinsics3mir11StorageLive19panic_cold_explicit17h73938d3c31b725f7E
libvulkan_nouveau.so:_ZN4core10intrinsics3mir11Unreachable19panic_cold_explicit17h2819070165be9829E
libvulkan_nouveau.so:_ZN4core10intrinsics3mir11__debuginfo19panic_cold_explicit17hd119ff8563ac9bbfE
libvulkan_nouveau.so:_ZN4core10intrinsics3mir12CastPtrToPtr19panic_cold_explicit17hb2dfb1f1c4241826E
libvulkan_nouveau.so:_ZN4core10intrinsics3mir12CopyForDeref19panic_cold_explicit17h92702c9ceb910f77E
libvulkan_nouveau.so:_ZN4core10intrinsics3mir12Discriminant19panic_cold_explicit17h2d319c70616addafE
libvulkan_nouveau.so:_ZN4core10intrinsics3mir12UnwindResume19panic_cold_explicit17hcc842a1921072632E
libvulkan_nouveau.so:_ZN4core10intrinsics3mir13CastTransmute19panic_cold_explicit17h70cbaed628d0957eE
libvulkan_nouveau.so:_ZN4core10intrinsics3mir13UnwindCleanup19panic_cold_explicit17hf7f5b6650777f077E
libvulkan_nouveau.so:_ZN4core10intrinsics3mir14UnwindContinue19panic_cold_explicit17h3c1a04639bb6f813E
libvulkan_nouveau.so:_ZN4core10intrinsics3mir15SetDiscriminant19panic_cold_explicit17he9bd75fc0bd4c230E
libvulkan_nouveau.so:_ZN4core10intrinsics3mir15UnwindTerminate19panic_cold_explicit17h7ac051857ec62124E
libvulkan_nouveau.so:_ZN4core10intrinsics3mir17UnwindUnreachable19panic_cold_explicit17h8bc158310c2ece1bE
libvulkan_nouveau.so:_ZN4core10intrinsics3mir21__internal_make_place19panic_cold_explicit17ha2c6ed1365bee8efE
libvulkan_nouveau.so:_ZN4core10intrinsics3mir3Len19panic_cold_explicit17hfc3d8917eb9e7751E
libvulkan_nouveau.so:_ZN4core10intrinsics3mir4Call19panic_cold_explicit17hd20237ea8392d2d5E
libvulkan_nouveau.so:_ZN4core10intrinsics3mir4Drop19panic_cold_explicit17hcf5fe99bda3fbb3aE
libvulkan_nouveau.so:_ZN4core10intrinsics3mir4Goto19panic_cold_explicit17h39b3097a29a97f35E
libvulkan_nouveau.so:_ZN4core10intrinsics3mir4Move19panic_cold_explicit17h3a81e7e13b73b93cE
libvulkan_nouveau.so:_ZN4core10intrinsics3mir5Field19panic_cold_explicit17h56ec8e92bcc5e26bE
libvulkan_nouveau.so:_ZN4core10intrinsics3mir5Retag19panic_cold_explicit17hfda94c5482aab47eE
libvulkan_nouveau.so:_ZN4core10intrinsics3mir6Assume19panic_cold_explicit17h401f1c5284063db9E
libvulkan_nouveau.so:_ZN4core10intrinsics3mir6Deinit19panic_cold_explicit17h928a89e8d4ae5180E
libvulkan_nouveau.so:_ZN4core10intrinsics3mir6Offset19panic_cold_explicit17hebcbd65896eed939E
libvulkan_nouveau.so:_ZN4core10intrinsics3mir6Return19panic_cold_explicit17hf037d3676e7c5cf0E
libvulkan_nouveau.so:_ZN4core10intrinsics3mir6Static19panic_cold_explicit17h4b0617fd28205bfaE
libvulkan_nouveau.so:_ZN4core10intrinsics3mir7Checked19panic_cold_explicit17h3ab9af0834fe3677E
libvulkan_nouveau.so:_ZN4core10intrinsics3mir7Variant19panic_cold_explicit17h5d8976191493d757E
libvulkan_nouveau.so:_ZN4core10intrinsics3mir8ReturnTo19panic_cold_explicit17h9ad912b8fd0a2fbeE
libvulkan_nouveau.so:_ZN4core10intrinsics3mir8TailCall19panic_cold_explicit17hf1a70eda1199d129E
libvulkan_nouveau.so:_ZN4core10intrinsics3mir9StaticMut19panic_cold_explicit17hbdf729efa2773806E
libvulkan_nouveau.so:_ZN4core3f3221_$LT$impl$u20$f32$GT$5clamp8do_panic7runtime17h2f8cdd75b8769458E
libvulkan_nouveau.so:_ZN4core3f6421_$LT$impl$u20$f64$GT$5clamp8do_panic7runtime17h4fa5e53adb093818E
libvulkan_nouveau.so:_ZN4core3ffi5c_str4CStr19from_bytes_with_nul17h8c14a62918f1d78dE
libvulkan_nouveau.so:_ZN4core3ffi5c_str4CStr20from_bytes_until_nul17hbdbac9920e22cb22E
libvulkan_nouveau.so:_ZN4core3ffi5c_str4CStr6to_str17h487897395d6822c1E
libvulkan_nouveau.so:_ZN4core3fmt17FormattingOptions16get_debug_as_hex17h5be4c06b15353d41E
libvulkan_nouveau.so:_ZN4core3fmt17FormattingOptions8get_sign17hea26da35e28febaaE
libvulkan_nouveau.so:_ZN4core3fmt17pointer_fmt_inner17h985959dbf8639acdE
libvulkan_nouveau.so:_ZN4core3fmt3num3imp51_$LT$impl$u20$core..fmt..Display$u20$for$u20$i8$GT$3fmt17he02b45a2ab2464a0E
libvulkan_nouveau.so:_ZN4core3fmt3num3imp51_$LT$impl$u20$core..fmt..Display$u20$for$u20$u8$GT$3fmt17h88164b1bc46ac3a7E
libvulkan_nouveau.so:_ZN4core3fmt3num3imp52_$LT$impl$u20$core..fmt..Display$u20$for$u20$i16$GT$3fmt17hfc799abcef83b5cbE
libvulkan_nouveau.so:_ZN4core3fmt3num3imp52_$LT$impl$u20$core..fmt..Display$u20$for$u20$i32$GT$3fmt17h31376d4e2710bcafE
libvulkan_nouveau.so:_ZN4core3fmt3num3imp52_$LT$impl$u20$core..fmt..Display$u20$for$u20$i64$GT$3fmt17hcee0cbab4e434f80E
libvulkan_nouveau.so:_ZN4core3fmt3num3imp52_$LT$impl$u20$core..fmt..Display$u20$for$u20$u16$GT$3fmt17h3abbd0ef38a0b45cE
libvulkan_nouveau.so:_ZN4core3fmt3num3imp52_$LT$impl$u20$core..fmt..Display$u20$for$u20$u32$GT$3fmt17h81bd97d3abb337daE
libvulkan_nouveau.so:_ZN4core3fmt3num3imp52_$LT$impl$u20$core..fmt..Display$u20$for$u20$u64$GT$3fmt17hbb4d2421243beed1E
libvulkan_nouveau.so:_ZN4core3fmt3num3imp52_$LT$impl$u20$core..fmt..LowerExp$u20$for$u20$i8$GT$3fmt17he79e754a2ad10850E
libvulkan_nouveau.so:_ZN4core3fmt3num3imp52_$LT$impl$u20$core..fmt..LowerExp$u20$for$u20$u8$GT$3fmt17h6b3cfac6a6001e53E
libvulkan_nouveau.so:_ZN4core3fmt3num3imp52_$LT$impl$u20$core..fmt..UpperExp$u20$for$u20$i8$GT$3fmt17h1fb403b33db91e50E
libvulkan_nouveau.so:_ZN4core3fmt3num3imp52_$LT$impl$u20$core..fmt..UpperExp$u20$for$u20$u8$GT$3fmt17ha5fb9dac3ad9a640E
libvulkan_nouveau.so:_ZN4core3fmt3num3imp53_$LT$impl$u20$core..fmt..LowerExp$u20$for$u20$i16$GT$3fmt17h8ecd532389e8b7c6E
libvulkan_nouveau.so:_ZN4core3fmt3num3imp53_$LT$impl$u20$core..fmt..LowerExp$u20$for$u20$i32$GT$3fmt17hcfabcc2f028f5bb0E
libvulkan_nouveau.so:_ZN4core3fmt3num3imp53_$LT$impl$u20$core..fmt..LowerExp$u20$for$u20$i64$GT$3fmt17h9122289bb05c6241E
libvulkan_nouveau.so:_ZN4core3fmt3num3imp53_$LT$impl$u20$core..fmt..LowerExp$u20$for$u20$u16$GT$3fmt17he0bb20946698f521E
libvulkan_nouveau.so:_ZN4core3fmt3num3imp53_$LT$impl$u20$core..fmt..LowerExp$u20$for$u20$u32$GT$3fmt17hc202240cc773da31E
libvulkan_nouveau.so:_ZN4core3fmt3num3imp53_$LT$impl$u20$core..fmt..LowerExp$u20$for$u20$u64$GT$3fmt17hb1f09921aa9dbaceE
libvulkan_nouveau.so:_ZN4core3fmt3num3imp53_$LT$impl$u20$core..fmt..UpperExp$u20$for$u20$i16$GT$3fmt17hf87a27cc05259e24E
libvulkan_nouveau.so:_ZN4core3fmt3num3imp53_$LT$impl$u20$core..fmt..UpperExp$u20$for$u20$i32$GT$3fmt17h87cc250c825a6311E
libvulkan_nouveau.so:_ZN4core3fmt3num3imp53_$LT$impl$u20$core..fmt..UpperExp$u20$for$u20$i64$GT$3fmt17ha07ad0ffbcf02bd2E
libvulkan_nouveau.so:_ZN4core3fmt3num3imp53_$LT$impl$u20$core..fmt..UpperExp$u20$for$u20$u16$GT$3fmt17hbd78ab7b10fcfafeE
libvulkan_nouveau.so:_ZN4core3fmt3num3imp53_$LT$impl$u20$core..fmt..UpperExp$u20$for$u20$u32$GT$3fmt17h21ebacd24dd1a570E
libvulkan_nouveau.so:_ZN4core3fmt3num3imp53_$LT$impl$u20$core..fmt..UpperExp$u20$for$u20$u64$GT$3fmt17h08003c3f3709718eE
libvulkan_nouveau.so:_ZN4core3fmt3num3imp54_$LT$impl$u20$core..fmt..Display$u20$for$u20$isize$GT$3fmt17hdb11c3e484182e64E
libvulkan_nouveau.so:_ZN4core3fmt3num3imp54_$LT$impl$u20$core..fmt..Display$u20$for$u20$usize$GT$3fmt17ha06283299c024080E
libvulkan_nouveau.so:_ZN4core3fmt3num3imp55_$LT$impl$u20$core..fmt..LowerExp$u20$for$u20$isize$GT$3fmt17hbacc52fab2bf9285E
libvulkan_nouveau.so:_ZN4core3fmt3num3imp55_$LT$impl$u20$core..fmt..LowerExp$u20$for$u20$usize$GT$3fmt17hebea11a7cb331ab1E
libvulkan_nouveau.so:_ZN4core3fmt3num3imp55_$LT$impl$u20$core..fmt..UpperExp$u20$for$u20$isize$GT$3fmt17hf35ac9fca71e022eE
libvulkan_nouveau.so:_ZN4core3fmt3num3imp55_$LT$impl$u20$core..fmt..UpperExp$u20$for$u20$usize$GT$3fmt17h3e908ce079a917c7E
libvulkan_nouveau.so:_ZN4core3fmt3num49_$LT$impl$u20$core..fmt..Octal$u20$for$u20$i8$GT$3fmt17hcfbe90efeb02d6a8E
libvulkan_nouveau.so:_ZN4core3fmt3num49_$LT$impl$u20$core..fmt..Octal$u20$for$u20$u8$GT$3fmt17h60544b9390571eceE
libvulkan_nouveau.so:_ZN4core3fmt3num50_$LT$impl$u20$core..fmt..Binary$u20$for$u20$i8$GT$3fmt17hc6b5f1a3d922a876E
libvulkan_nouveau.so:_ZN4core3fmt3num50_$LT$impl$u20$core..fmt..Binary$u20$for$u20$u8$GT$3fmt17h91f78226655374b7E
libvulkan_nouveau.so:_ZN4core3fmt3num50_$LT$impl$u20$core..fmt..Octal$u20$for$u20$i16$GT$3fmt17h7a63bad0999c0e6dE
libvulkan_nouveau.so:_ZN4core3fmt3num50_$LT$impl$u20$core..fmt..Octal$u20$for$u20$i32$GT$3fmt17hec612dcaeafbc670E
libvulkan_nouveau.so:_ZN4core3fmt3num50_$LT$impl$u20$core..fmt..Octal$u20$for$u20$i64$GT$3fmt17hffae8dae21a42b1eE
libvulkan_nouveau.so:_ZN4core3fmt3num50_$LT$impl$u20$core..fmt..Octal$u20$for$u20$u16$GT$3fmt17h03cc42a7485714faE
libvulkan_nouveau.so:_ZN4core3fmt3num50_$LT$impl$u20$core..fmt..Octal$u20$for$u20$u32$GT$3fmt17h643e8650e129079aE
libvulkan_nouveau.so:_ZN4core3fmt3num50_$LT$impl$u20$core..fmt..Octal$u20$for$u20$u64$GT$3fmt17h34df965e5b066f7bE
libvulkan_nouveau.so:_ZN4core3fmt3num51_$LT$impl$u20$core..fmt..Binary$u20$for$u20$i16$GT$3fmt17h26430bb46af8554fE
libvulkan_nouveau.so:_ZN4core3fmt3num51_$LT$impl$u20$core..fmt..Binary$u20$for$u20$i32$GT$3fmt17heeeeeb27144e10bfE
libvulkan_nouveau.so:_ZN4core3fmt3num51_$LT$impl$u20$core..fmt..Binary$u20$for$u20$i64$GT$3fmt17hd42b1d50d2cf64d8E
libvulkan_nouveau.so:_ZN4core3fmt3num51_$LT$impl$u20$core..fmt..Binary$u20$for$u20$u16$GT$3fmt17hbca41bb861043b29E
libvulkan_nouveau.so:_ZN4core3fmt3num51_$LT$impl$u20$core..fmt..Binary$u20$for$u20$u32$GT$3fmt17h72893ac460bb55a8E
libvulkan_nouveau.so:_ZN4core3fmt3num51_$LT$impl$u20$core..fmt..Binary$u20$for$u20$u64$GT$3fmt17heddcc6cbb67e7e6fE
libvulkan_nouveau.so:_ZN4core3fmt3num51_$LT$impl$u20$core..fmt..Octal$u20$for$u20$i128$GT$3fmt17h9127c21f4c9a6541E
libvulkan_nouveau.so:_ZN4core3fmt3num51_$LT$impl$u20$core..fmt..Octal$u20$for$u20$u128$GT$3fmt17h6a4103afb30803e7E
libvulkan_nouveau.so:_ZN4core3fmt3num52_$LT$impl$u20$core..fmt..Binary$u20$for$u20$i128$GT$3fmt17h16b1b912f0ebafcfE
libvulkan_nouveau.so:_ZN4core3fmt3num52_$LT$impl$u20$core..fmt..Binary$u20$for$u20$u128$GT$3fmt17hbc84b029983ca6ebE
libvulkan_nouveau.so:_ZN4core3fmt3num52_$LT$impl$u20$core..fmt..LowerHex$u20$for$u20$i8$GT$3fmt17h337e1be5fcd147e1E
libvulkan_nouveau.so:_ZN4core3fmt3num52_$LT$impl$u20$core..fmt..LowerHex$u20$for$u20$u8$GT$3fmt17hc0cd47c2c254f31dE
libvulkan_nouveau.so:_ZN4core3fmt3num52_$LT$impl$u20$core..fmt..Octal$u20$for$u20$isize$GT$3fmt17hb174187f6864b583E
libvulkan_nouveau.so:_ZN4core3fmt3num52_$LT$impl$u20$core..fmt..Octal$u20$for$u20$usize$GT$3fmt17h34413ae4fb1ad201E
libvulkan_nouveau.so:_ZN4core3fmt3num52_$LT$impl$u20$core..fmt..UpperHex$u20$for$u20$i8$GT$3fmt17h8af5857da822e46bE
libvulkan_nouveau.so:_ZN4core3fmt3num52_$LT$impl$u20$core..fmt..UpperHex$u20$for$u20$u8$GT$3fmt17h2309427878ff7254E
libvulkan_nouveau.so:_ZN4core3fmt3num53_$LT$impl$u20$core..fmt..Binary$u20$for$u20$isize$GT$3fmt17h89d863e637935f24E
libvulkan_nouveau.so:_ZN4core3fmt3num53_$LT$impl$u20$core..fmt..Binary$u20$for$u20$usize$GT$3fmt17h5f538e4a2f97c42eE
libvulkan_nouveau.so:_ZN4core3fmt3num53_$LT$impl$u20$core..fmt..Display$u20$for$u20$i128$GT$3fmt17h0a2e9b6f0de6ef4cE
libvulkan_nouveau.so:_ZN4core3fmt3num53_$LT$impl$u20$core..fmt..Display$u20$for$u20$u128$GT$3fmt17h71498310da985b45E
libvulkan_nouveau.so:_ZN4core3fmt3num53_$LT$impl$u20$core..fmt..LowerHex$u20$for$u20$i16$GT$3fmt17h347f02cf2b53d5abE
libvulkan_nouveau.so:_ZN4core3fmt3num53_$LT$impl$u20$core..fmt..LowerHex$u20$for$u20$i32$GT$3fmt17hf36afb4066ac495fE
libvulkan_nouveau.so:_ZN4core3fmt3num53_$LT$impl$u20$core..fmt..LowerHex$u20$for$u20$i64$GT$3fmt17hd47b49e64d42e9e9E
libvulkan_nouveau.so:_ZN4core3fmt3num53_$LT$impl$u20$core..fmt..LowerHex$u20$for$u20$u16$GT$3fmt17h4e00e3a78b595b53E
libvulkan_nouveau.so:_ZN4core3fmt3num53_$LT$impl$u20$core..fmt..LowerHex$u20$for$u20$u32$GT$3fmt17habd4881621c8e6eaE
libvulkan_nouveau.so:_ZN4core3fmt3num53_$LT$impl$u20$core..fmt..LowerHex$u20$for$u20$u64$GT$3fmt17h8d47275e3eecfdd2E
libvulkan_nouveau.so:_ZN4core3fmt3num53_$LT$impl$u20$core..fmt..UpperHex$u20$for$u20$i16$GT$3fmt17hf3db79ebe784e585E
libvulkan_nouveau.so:_ZN4core3fmt3num53_$LT$impl$u20$core..fmt..UpperHex$u20$for$u20$i32$GT$3fmt17h3233d4f22281cfdcE
libvulkan_nouveau.so:_ZN4core3fmt3num53_$LT$impl$u20$core..fmt..UpperHex$u20$for$u20$i64$GT$3fmt17h9c88a6f1c6da8015E
libvulkan_nouveau.so:_ZN4core3fmt3num53_$LT$impl$u20$core..fmt..UpperHex$u20$for$u20$u16$GT$3fmt17h3fcbd3b1117fdf46E
libvulkan_nouveau.so:_ZN4core3fmt3num53_$LT$impl$u20$core..fmt..UpperHex$u20$for$u20$u32$GT$3fmt17h81a99bbfc313f008E
libvulkan_nouveau.so:_ZN4core3fmt3num53_$LT$impl$u20$core..fmt..UpperHex$u20$for$u20$u64$GT$3fmt17h130cedd3a4d549d2E
libvulkan_nouveau.so:_ZN4core3fmt3num54_$LT$impl$u20$core..fmt..LowerExp$u20$for$u20$i128$GT$3fmt17h06593cbe4b547decE
libvulkan_nouveau.so:_ZN4core3fmt3num54_$LT$impl$u20$core..fmt..LowerExp$u20$for$u20$u128$GT$3fmt17he23982c64be29d90E
libvulkan_nouveau.so:_ZN4core3fmt3num54_$LT$impl$u20$core..fmt..LowerHex$u20$for$u20$i128$GT$3fmt17h18c081c8fade3b9bE
libvulkan_nouveau.so:_ZN4core3fmt3num54_$LT$impl$u20$core..fmt..LowerHex$u20$for$u20$u128$GT$3fmt17he47c6b7931d63408E
libvulkan_nouveau.so:_ZN4core3fmt3num54_$LT$impl$u20$core..fmt..UpperExp$u20$for$u20$i128$GT$3fmt17h11bf5e0ba4f53b65E
libvulkan_nouveau.so:_ZN4core3fmt3num54_$LT$impl$u20$core..fmt..UpperExp$u20$for$u20$u128$GT$3fmt17heb8064f0dd2a31eaE
libvulkan_nouveau.so:_ZN4core3fmt3num54_$LT$impl$u20$core..fmt..UpperHex$u20$for$u20$i128$GT$3fmt17h83c5f5a2bcc860d2E
libvulkan_nouveau.so:_ZN4core3fmt3num54_$LT$impl$u20$core..fmt..UpperHex$u20$for$u20$u128$GT$3fmt17h3a52e8aa7b31357aE
libvulkan_nouveau.so:_ZN4core3fmt3num55_$LT$impl$u20$core..fmt..LowerHex$u20$for$u20$isize$GT$3fmt17h72e44c3d4404f1f2E
libvulkan_nouveau.so:_ZN4core3fmt3num55_$LT$impl$u20$core..fmt..LowerHex$u20$for$u20$usize$GT$3fmt17hd92fabfd38b0e861E
libvulkan_nouveau.so:_ZN4core3fmt3num55_$LT$impl$u20$core..fmt..UpperHex$u20$for$u20$isize$GT$3fmt17hccfeaf93f3ac46c2E
libvulkan_nouveau.so:_ZN4core3fmt3num55_$LT$impl$u20$core..fmt..UpperHex$u20$for$u20$usize$GT$3fmt17h012c39b42c13260aE
libvulkan_nouveau.so:_ZN4core3fmt5float50_$LT$impl$u20$core..fmt..Debug$u20$for$u20$f32$GT$3fmt17hbe514412b94d976eE
libvulkan_nouveau.so:_ZN4core3fmt5float50_$LT$impl$u20$core..fmt..Debug$u20$for$u20$f64$GT$3fmt17h32cf5f7a8389d68fE
libvulkan_nouveau.so:_ZN4core3fmt5float52_$LT$impl$u20$core..fmt..Display$u20$for$u20$f32$GT$3fmt17hf53bc7655ca8b3b4E
libvulkan_nouveau.so:_ZN4core3fmt5float52_$LT$impl$u20$core..fmt..Display$u20$for$u20$f64$GT$3fmt17h91c468e83f9378c2E
libvulkan_nouveau.so:_ZN4core3fmt5float53_$LT$impl$u20$core..fmt..LowerExp$u20$for$u20$f32$GT$3fmt17h4dff0d1ed5184867E
libvulkan_nouveau.so:_ZN4core3fmt5float53_$LT$impl$u20$core..fmt..LowerExp$u20$for$u20$f64$GT$3fmt17ha9dd448d031b2bebE
libvulkan_nouveau.so:_ZN4core3fmt5float53_$LT$impl$u20$core..fmt..UpperExp$u20$for$u20$f32$GT$3fmt17hc53b8b1a38270a27E
libvulkan_nouveau.so:_ZN4core3fmt5float53_$LT$impl$u20$core..fmt..UpperExp$u20$for$u20$f64$GT$3fmt17hcaf9c261b9693692E
libvulkan_nouveau.so:_ZN4core3fmt5write17hb3c003c6767fe90fE
libvulkan_nouveau.so:_ZN4core3fmt8builders10DebugTuple21finish_non_exhaustive17hf897587f1b73426eE
libvulkan_nouveau.so:_ZN4core3fmt8builders10DebugTuple5field17h27c1650c43c8a4eaE
libvulkan_nouveau.so:_ZN4core3fmt8builders10DebugTuple6finish17h59b592f400afac14E
libvulkan_nouveau.so:_ZN4core3fmt8builders10PadAdapter4wrap17h4793a15dabc37159E
libvulkan_nouveau.so:_ZN4core3fmt8builders11DebugStruct21finish_non_exhaustive17hd37ff3cb681ca8b6E
libvulkan_nouveau.so:_ZN4core3fmt8builders11DebugStruct5field17he99d544a995f8028E
libvulkan_nouveau.so:_ZN4core3fmt8builders11DebugStruct6finish17ha97e50f8d0d6321cE
libvulkan_nouveau.so:_ZN4core3fmt8builders8DebugMap21finish_non_exhaustive17h2dcfadea6941a6c0E
libvulkan_nouveau.so:_ZN4core3fmt8builders8DebugMap3key17he7e4328faa53b66aE
libvulkan_nouveau.so:_ZN4core3fmt8builders8DebugMap5entry17h8c126481b6953008E
libvulkan_nouveau.so:_ZN4core3fmt8builders8DebugMap5value17hecde93d74eb524b7E
libvulkan_nouveau.so:_ZN4core3fmt8builders8DebugMap6finish17h1c2e0cda84b6db23E
libvulkan_nouveau.so:_ZN4core3fmt8builders8DebugSet21finish_non_exhaustive17he6f2f11cb23b9364E
libvulkan_nouveau.so:_ZN4core3fmt8builders8DebugSet5entry17hb46cd045df31c1a1E
libvulkan_nouveau.so:_ZN4core3fmt8builders8DebugSet6finish17hcf6425dbb37cfe9eE
libvulkan_nouveau.so:_ZN4core3fmt8builders9DebugList21finish_non_exhaustive17h2c7a04fce04530eeE
libvulkan_nouveau.so:_ZN4core3fmt8builders9DebugList5entry17h8a645456f94b0022E
libvulkan_nouveau.so:_ZN4core3fmt8builders9DebugList6finish17hee1d2732fccb271cE
libvulkan_nouveau.so:_ZN4core3fmt8builders9DebugList7entries17h1e747c2c8c048b77E
libvulkan_nouveau.so:_ZN4core3fmt8builders9DebugList7entries17h86b14e493be6109dE
libvulkan_nouveau.so:_ZN4core3fmt9Arguments9new_const17hf2c299ea49cc3f05E
libvulkan_nouveau.so:_ZN4core3fmt9Formatter10debug_list17h8e06962d7134ce05E
libvulkan_nouveau.so:_ZN4core3fmt9Formatter11debug_tuple17h57fb272d1bb53635E
libvulkan_nouveau.so:_ZN4core3fmt9Formatter12debug_struct17h0fdfa1918497e43fE
libvulkan_nouveau.so:_ZN4core3fmt9Formatter12pad_integral17h4c13133203c2cc3aE
libvulkan_nouveau.so:_ZN4core3fmt9Formatter25debug_tuple_field1_finish17h16d8d306af066e0dE
libvulkan_nouveau.so:_ZN4core3fmt9Formatter25debug_tuple_field2_finish17hef7a586406c3e45fE
libvulkan_nouveau.so:_ZN4core3fmt9Formatter25debug_tuple_field3_finish17he0e09c2306daf988E
libvulkan_nouveau.so:_ZN4core3fmt9Formatter25debug_tuple_field4_finish17h80b065c5f42c1861E
libvulkan_nouveau.so:_ZN4core3fmt9Formatter25debug_tuple_field5_finish17h414e448990ee7b14E
libvulkan_nouveau.so:_ZN4core3fmt9Formatter25debug_tuple_fields_finish17h54e2ea5511706122E
libvulkan_nouveau.so:_ZN4core3fmt9Formatter26debug_struct_field1_finish17h44581719eecbbbcbE
libvulkan_nouveau.so:_ZN4core3fmt9Formatter26debug_struct_field2_finish17h2588f78b8130050bE
libvulkan_nouveau.so:_ZN4core3fmt9Formatter26debug_struct_field3_finish17h5d88cb115fa2f0afE
libvulkan_nouveau.so:_ZN4core3fmt9Formatter26debug_struct_field4_finish17hf0fb3af220c7ad11E
libvulkan_nouveau.so:_ZN4core3fmt9Formatter26debug_struct_field5_finish17h9d82520b7b95c57aE
libvulkan_nouveau.so:_ZN4core3fmt9Formatter26debug_struct_fields_finish17h2a3fea2a3731cc26E
libvulkan_nouveau.so:_ZN4core3fmt9Formatter3pad17h2e3b5a4b7c114495E
libvulkan_nouveau.so:_ZN4core3fmt9Formatter4sign17h69617cf4b097c043E
libvulkan_nouveau.so:_ZN4core3fmt9Formatter9debug_map17hb577748fdce4225dE
libvulkan_nouveau.so:_ZN4core3fmt9Formatter9debug_set17h159a410ce2635a44E
libvulkan_nouveau.so:_ZN4core3fmt9Formatter9write_str17hc0660f6676ea9108E
libvulkan_nouveau.so:_ZN4core3net6parser44_$LT$impl$u20$core..net..ip_addr..IpAddr$GT$11parse_ascii17h0793a0d015f17e4cE
libvulkan_nouveau.so:_ZN4core3net6parser46_$LT$impl$u20$core..net..ip_addr..Ipv4Addr$GT$11parse_ascii17hb6297ae287ea081cE
libvulkan_nouveau.so:_ZN4core3net6parser46_$LT$impl$u20$core..net..ip_addr..Ipv6Addr$GT$11parse_ascii17h7d9db580dcbbb6fdE
libvulkan_nouveau.so:_ZN4core3net6parser52_$LT$impl$u20$core..net..socket_addr..SocketAddr$GT$11parse_ascii17ha9941cc5511285c3E
libvulkan_nouveau.so:_ZN4core3net6parser54_$LT$impl$u20$core..net..socket_addr..SocketAddrV4$GT$11parse_ascii17hff35f56ac6611910E
libvulkan_nouveau.so:_ZN4core3net6parser54_$LT$impl$u20$core..net..socket_addr..SocketAddrV6$GT$11parse_ascii17hc36262419f7cf882E
libvulkan_nouveau.so:_ZN4core3net6parser83_$LT$impl$u20$core..str..traits..FromStr$u20$for$u20$core..net..ip_addr..IpAddr$GT$8from_str17h0a0415900528b6dfE
libvulkan_nouveau.so:_ZN4core3net6parser85_$LT$impl$u20$core..str..traits..FromStr$u20$for$u20$core..net..ip_addr..Ipv4Addr$GT$8from_str17h6f74de5002f3f2c2E
libvulkan_nouveau.so:_ZN4core3net6parser85_$LT$impl$u20$core..str..traits..FromStr$u20$for$u20$core..net..ip_addr..Ipv6Addr$GT$8from_str17he02f3731cffa0a81E
libvulkan_nouveau.so:_ZN4core3net6parser91_$LT$impl$u20$core..str..traits..FromStr$u20$for$u20$core..net..socket_addr..SocketAddr$GT$8from_str17h32a925819c41edf2E
libvulkan_nouveau.so:_ZN4core3net6parser93_$LT$impl$u20$core..str..traits..FromStr$u20$for$u20$core..net..socket_addr..SocketAddrV4$GT$8from_str17hbf7c4b90aee741bdE
libvulkan_nouveau.so:_ZN4core3net6parser93_$LT$impl$u20$core..str..traits..FromStr$u20$for$u20$core..net..socket_addr..SocketAddrV6$GT$8from_str17hb628daee4135394bE
libvulkan_nouveau.so:_ZN4core3num14overflow_panic3add17h7cf01bd3270dd984E
libvulkan_nouveau.so:_ZN4core3num14overflow_panic3div17h982be1292a313260E
libvulkan_nouveau.so:_ZN4core3num14overflow_panic3mul17h23b4b8567f243e02E
libvulkan_nouveau.so:_ZN4core3num14overflow_panic3neg17hf32d8221d5514f9aE
libvulkan_nouveau.so:_ZN4core3num14overflow_panic3rem17hecc41d2b3f0dffafE
libvulkan_nouveau.so:_ZN4core3num14overflow_panic3shl17h29a7a7f6d1c38c30E
libvulkan_nouveau.so:_ZN4core3num14overflow_panic3shr17hc044b7fb660004e8E
libvulkan_nouveau.so:_ZN4core3num14overflow_panic3sub17he493dd3beb42c838E
libvulkan_nouveau.so:_ZN4core3num20from_str_radix_panic17hb34647790aae0a64E
libvulkan_nouveau.so:_ZN4core3num20from_str_radix_panic8do_panic7runtime17h8a2cef6b93d04b78E
libvulkan_nouveau.so:_ZN4core3num3fmt4Part5write17h8d704f7384668fe0E
libvulkan_nouveau.so:_ZN4core3num3fmt9Formatted3len17h788ab5fff42af6b2E
libvulkan_nouveau.so:_ZN4core3num3fmt9Formatted5write17hc29e84e052e88bcdE
libvulkan_nouveau.so:_ZN4core3num6bignum5tests6Big8x310bit_length17h0000c0812553affdE
libvulkan_nouveau.so:_ZN4core3num6bignum5tests6Big8x310mul_digits17h0e7be0756e9697b3E
libvulkan_nouveau.so:_ZN4core3num6bignum5tests6Big8x313div_rem_small17he0475348828bc9fcE
libvulkan_nouveau.so:_ZN4core3num6bignum5tests6Big8x33add17ha25a7a7dad4a0f6bE
libvulkan_nouveau.so:_ZN4core3num6bignum5tests6Big8x33sub17h8db4d97a52c2cae5E
libvulkan_nouveau.so:_ZN4core3num6bignum5tests6Big8x36digits17h97baa89bf0c50dddE
libvulkan_nouveau.so:_ZN4core3num6bignum5tests6Big8x37div_rem17hbd97427e3aac3094E
libvulkan_nouveau.so:_ZN4core3num6bignum5tests6Big8x37get_bit17h7bb1c9212b4ce669E
libvulkan_nouveau.so:_ZN4core3num6bignum5tests6Big8x37is_zero17h67fcb6f277e06173E
libvulkan_nouveau.so:_ZN4core3num6bignum5tests6Big8x38from_u6417h8bba08aad47f49a6E
libvulkan_nouveau.so:_ZN4core3num6bignum5tests6Big8x38mul_pow217h9636568c37e89320E
libvulkan_nouveau.so:_ZN4core3num6bignum5tests6Big8x38mul_pow517hf64505b9833ed29fE
libvulkan_nouveau.so:_ZN4core3num6bignum5tests6Big8x39add_small17h70b59a92be536f9dE
libvulkan_nouveau.so:_ZN4core3num6bignum5tests6Big8x39mul_small17h0bf63844336250b0E
libvulkan_nouveau.so:_ZN4core3num6bignum8Big32x4010bit_length17h31607ea344fbb83fE
libvulkan_nouveau.so:_ZN4core3num6bignum8Big32x4010mul_digits17hd35f09e097add40aE
libvulkan_nouveau.so:_ZN4core3num6bignum8Big32x4013div_rem_small17h233611036f79c1efE
libvulkan_nouveau.so:_ZN4core3num6bignum8Big32x403add17h81afe46e9db05fbdE
libvulkan_nouveau.so:_ZN4core3num6bignum8Big32x403sub17h3603ea82b58a40fbE
libvulkan_nouveau.so:_ZN4core3num6bignum8Big32x406digits17ha78ee09de553a060E
libvulkan_nouveau.so:_ZN4core3num6bignum8Big32x407div_rem17h89e5ceef0b2851d9E
libvulkan_nouveau.so:_ZN4core3num6bignum8Big32x407get_bit17h324ccc9671b68ae4E
libvulkan_nouveau.so:_ZN4core3num6bignum8Big32x407is_zero17h460c44db070187a7E
libvulkan_nouveau.so:_ZN4core3num6bignum8Big32x408from_u6417h49479850a9a8f607E
libvulkan_nouveau.so:_ZN4core3num6bignum8Big32x408mul_pow217h6bcaef1b6673680aE
libvulkan_nouveau.so:_ZN4core3num6bignum8Big32x408mul_pow517h4e2c93ad42bb57c9E
libvulkan_nouveau.so:_ZN4core3num6bignum8Big32x409add_small17h53beec73334db29eE
libvulkan_nouveau.so:_ZN4core3num6bignum8Big32x409mul_small17hb168e9edb992a90fE
libvulkan_nouveau.so:_ZN4core3num7dec2flt5parse12parse_number17h565ff953b902dec7E
libvulkan_nouveau.so:_ZN4core3num7dec2flt60_$LT$impl$u20$core..str..traits..FromStr$u20$for$u20$f32$GT$8from_str17hc5ed3135d93cc0c2E
libvulkan_nouveau.so:_ZN4core3num7dec2flt60_$LT$impl$u20$core..str..traits..FromStr$u20$for$u20$f64$GT$8from_str17h178604a50bc829a5E
libvulkan_nouveau.so:_ZN4core3num7dec2flt6lemire22compute_product_approx17h4be1e69501b79808E
libvulkan_nouveau.so:_ZN4core3num7dec2flt7decimal13parse_decimal17h33278b3d8e2ad33dE
libvulkan_nouveau.so:_ZN4core3num7dec2flt7decimal7Decimal10left_shift17h6308daadf29900d7E
libvulkan_nouveau.so:_ZN4core3num7dec2flt7decimal7Decimal11right_shift17hdf25879859307751E
libvulkan_nouveau.so:_ZN4core3num7dec2flt7decimal7Decimal5round17h84e91aa0e4180e80E
libvulkan_nouveau.so:_ZN4core3num7flt2dec17digits_to_dec_str17h071bc94f2ec54ed3E
libvulkan_nouveau.so:_ZN4core3num7flt2dec17digits_to_exp_str17h0239f52b7cda972aE
libvulkan_nouveau.so:_ZN4core3num7flt2dec8round_up17hd2f7102b360b81c8E
libvulkan_nouveau.so:_ZN4core3num7flt2dec8strategy5grisu12cached_power17hb6ebc6669e63ac7fE
libvulkan_nouveau.so:_ZN4core3num7flt2dec8strategy5grisu12format_exact17h48fbb0a11a134096E
libvulkan_nouveau.so:_ZN4core3num7flt2dec8strategy5grisu15format_shortest17h091c38b518b83fa8E
libvulkan_nouveau.so:_ZN4core3num7flt2dec8strategy5grisu16format_exact_opt17ha2bdf6d5a2de75e7E
libvulkan_nouveau.so:_ZN4core3num7flt2dec8strategy5grisu19format_shortest_opt17h2722d70d758a5b5dE
libvulkan_nouveau.so:_ZN4core3num7flt2dec8strategy6dragon12format_exact17hdede0f97f2a86d24E
libvulkan_nouveau.so:_ZN4core3num7flt2dec8strategy6dragon15format_shortest17h3551d41a3a3ff600E
libvulkan_nouveau.so:_ZN4core3num7flt2dec8strategy6dragon9mul_pow1017hf987d410182841e7E
libvulkan_nouveau.so:_ZN4core3num7flt2dec9estimator23estimate_scaling_factor17h7b301ba821a7040fE
libvulkan_nouveau.so:_ZN4core3num8int_sqrt27panic_for_negative_argument17hb9c087b9f2995cd0E
libvulkan_nouveau.so:_ZN4core3num9diy_float2Fp12normalize_to17h00c3ed5bcfdff84fE
libvulkan_nouveau.so:_ZN4core3num9int_log1030panic_for_nonpositive_argument17hbd05bee2b0e169b4E
libvulkan_nouveau.so:_ZN4core3ops5range16Range$LT$Idx$GT$8is_empty17h1c243c7de547cd30E
libvulkan_nouveau.so:_ZN4core3ops8function5impls80_$LT$impl$u20$core..ops..function..FnOnce$LT$A$GT$$u20$for$u20$$RF$mut$u20$F$GT$9call_once17h0f5a3a1d7764ac2fE
libvulkan_nouveau.so:_ZN4core3ptr102drop_in_place$LT$core..pin..Pin$LT$alloc..boxed..Box$LT$compiler..memstream..MemStreamImpl$GT$$GT$$GT$17h58ae62b11085330eE
libvulkan_nouveau.so:_ZN4core3ptr42drop_in_place$LT$alloc..string..String$GT$17h41c50e1ac2630809E
libvulkan_nouveau.so:_ZN4core3ptr46drop_in_place$LT$alloc..vec..Vec$LT$u8$GT$$GT$17h3498c4e772c89c71E
libvulkan_nouveau.so:_ZN4core3ptr51drop_in_place$LT$compiler..memstream..MemStream$GT$17heb4dbbfe96cdfe81E
libvulkan_nouveau.so:_ZN4core3ptr53drop_in_place$LT$alloc..raw_vec..RawVec$LT$u8$GT$$GT$17h28229aacdd5333c6E
libvulkan_nouveau.so:_ZN4core3ptr62drop_in_place$LT$alloc..vec..set_len_on_drop..SetLenOnDrop$GT$17h8d0f28c5aa683530E
libvulkan_nouveau.so:_ZN4core3ptr7mut_ptr31_$LT$impl$u20$$BP$mut$u20$T$GT$6as_ref17h1ffefea45578a36dE
libvulkan_nouveau.so:_ZN4core3ptr7mut_ptr31_$LT$impl$u20$$BP$mut$u20$T$GT$6as_ref17h64d1964eb6de7fc1E
libvulkan_nouveau.so:_ZN4core3ptr7mut_ptr31_$LT$impl$u20$$BP$mut$u20$T$GT$6as_ref17h968b71f1e5e4aebaE
libvulkan_nouveau.so:_ZN4core3ptr7mut_ptr31_$LT$impl$u20$$BP$mut$u20$T$GT$6as_ref17ha6fe8d24a95ed0faE
libvulkan_nouveau.so:_ZN4core3ptr7mut_ptr31_$LT$impl$u20$$BP$mut$u20$T$GT$7is_null17hbc34bd76acc96dd5E
libvulkan_nouveau.so:_ZN4core3ptr80drop_in_place$LT$alloc..boxed..Box$LT$compiler..memstream..MemStreamImpl$GT$$GT$17h34a7ba7888a7ceecE
libvulkan_nouveau.so:_ZN4core3ptr8non_null16NonNull$LT$T$GT$3new17h2e2d43929df9de10E
libvulkan_nouveau.so:_ZN4core3ptr8non_null16NonNull$LT$T$GT$3new17hdd2e0d97a0a8075eE
libvulkan_nouveau.so:_ZN4core3ptr8non_null16NonNull$LT$T$GT$3new17he8c771b4505843aeE
libvulkan_nouveau.so:_ZN4core3ptr8non_null16NonNull$LT$T$GT$3new17hebd5a8a606b5fa9eE
libvulkan_nouveau.so:_ZN4core3ptr8non_null16NonNull$LT$T$GT$7sub_ptr17h52f0c36df9762d36E
libvulkan_nouveau.so:_ZN4core3str16slice_error_fail17ha0d3bb77ff1e303fE
libvulkan_nouveau.so:_ZN4core3str19slice_error_fail_ct17h59180c9ae560f997E
libvulkan_nouveau.so:_ZN4core3str19slice_error_fail_rt17ha1c7802e47b92574E
libvulkan_nouveau.so:_ZN4core3str21_$LT$impl$u20$str$GT$12escape_debug17hdafefade45d80753E
libvulkan_nouveau.so:_ZN4core3str21_$LT$impl$u20$str$GT$12substr_range17h4833fb933a022811E
libvulkan_nouveau.so:_ZN4core3str21_$LT$impl$u20$str$GT$18split_at_unchecked17hdac8547b8d60a16aE
libvulkan_nouveau.so:_ZN4core3str21_$LT$impl$u20$str$GT$22split_at_mut_unchecked17h1072d5926b2b4da5E
libvulkan_nouveau.so:_ZN4core3str5count14do_count_chars17hafbc0cfeb7122979E
libvulkan_nouveau.so:_ZN4core3str5count23char_count_general_case17hfe9751fa39bced41E
libvulkan_nouveau.so:_ZN4core3str6traits23str_index_overflow_fail17h1bcbbb1edf40f614E
libvulkan_nouveau.so:_ZN4core3str7pattern11StrSearcher3new17h00a0c9ef6345316fE
libvulkan_nouveau.so:_ZN4core3str8converts13from_utf8_mut17h443f8c6efa052ae3E
libvulkan_nouveau.so:_ZN4core3str8converts9from_utf817ha0324f3a87a30cf0E
libvulkan_nouveau.so:_ZN4core4cell22panic_already_borrowed17h2a4fc824b4213e13E
libvulkan_nouveau.so:_ZN4core4cell30panic_already_mutably_borrowed17h993b89980eb6ae59E
libvulkan_nouveau.so:_ZN4core4cell4lazy14panic_poisoned17h78a836c88dcf26f6E
libvulkan_nouveau.so:_ZN4core4char7methods15encode_utf8_raw8do_panic7runtime17h4e238954df1f900eE
libvulkan_nouveau.so:_ZN4core4char7methods16encode_utf16_raw8do_panic7runtime17hff0d90ce5ee3cbafE
libvulkan_nouveau.so:_ZN4core4iter5range101_$LT$impl$u20$core..iter..traits..iterator..Iterator$u20$for$u20$core..ops..range..Range$LT$A$GT$$GT$4next17h1c3c8fccec4d9775E
libvulkan_nouveau.so:_ZN4core4iter5range101_$LT$impl$u20$core..iter..traits..iterator..Iterator$u20$for$u20$core..ops..range..Range$LT$A$GT$$GT$9size_hint17h7af410a5f6fd3a9eE
libvulkan_nouveau.so:_ZN4core4iter6traits10exact_size17ExactSizeIterator3len17h280b54677d3ea874E
libvulkan_nouveau.so:_ZN4core4iter6traits8iterator8Iterator6copied17hb65eb27fb331c5ceE
libvulkan_nouveau.so:_ZN4core5alloc6layout6Layout19is_size_align_valid17h194e82fd8d152c1fE
libvulkan_nouveau.so:_ZN4core5ascii14escape_default17haeea9226566f16e9E
libvulkan_nouveau.so:_ZN4core5slice29_$LT$impl$u20$$u5b$T$u5d$$GT$11starts_with17h73a8b48e284a962fE
libvulkan_nouveau.so:_ZN4core5slice29_$LT$impl$u20$$u5b$T$u5d$$GT$15copy_from_slice17len_mismatch_fail17h34d70dd7c3d17828E
libvulkan_nouveau.so:_ZN4core5slice29_$LT$impl$u20$$u5b$T$u5d$$GT$15copy_from_slice17len_mismatch_fail8do_panic7runtime17h50381902ada7a464E
libvulkan_nouveau.so:_ZN4core5slice29_$LT$impl$u20$$u5b$T$u5d$$GT$16align_to_offsets3gcd17hc6806eb77eb18522E
libvulkan_nouveau.so:_ZN4core5slice29_$LT$impl$u20$$u5b$T$u5d$$GT$4iter17h0e34dcda8c9a8d34E
libvulkan_nouveau.so:_ZN4core5slice29_$LT$impl$u20$$u5b$T$u5d$$GT$8iter_mut17h4da3736a30d49377E
libvulkan_nouveau.so:_ZN4core5slice29_$LT$impl$u20$$u5b$T$u5d$$GT$9ends_with17ha36e4b8bb81368d3E
libvulkan_nouveau.so:_ZN4core5slice3raw14from_raw_parts17h3f0defa07e05b602E
libvulkan_nouveau.so:_ZN4core5slice3raw14from_raw_parts17h6323765eaaac03f1E
libvulkan_nouveau.so:_ZN4core5slice3raw14from_raw_parts17h7ded04009574f4caE
libvulkan_nouveau.so:_ZN4core5slice3raw14from_raw_parts17h920c45047812393dE
libvulkan_nouveau.so:_ZN4core5slice3raw14from_raw_parts17hf82e62cdc693c4bbE
libvulkan_nouveau.so:_ZN4core5slice4iter13Iter$LT$T$GT$3new17h2228719a9001e675E
libvulkan_nouveau.so:_ZN4core5slice4iter16IterMut$LT$T$GT$3new17h35d73f57a8414e57E
libvulkan_nouveau.so:_ZN4core5slice4sort6shared9smallsort22panic_on_ord_violation17h545ca7ac11bb5095E
libvulkan_nouveau.so:_ZN4core5slice4sort6stable14driftsort_main17h4f88cb17d9d8c471E
libvulkan_nouveau.so:_ZN4core5slice4sort6stable14driftsort_main17h53cca81553af3d24E
libvulkan_nouveau.so:_ZN4core5slice4sort6stable14driftsort_main17h63ffccaebd34860aE
libvulkan_nouveau.so:_ZN4core5slice4sort6stable14driftsort_main17h66063dc8ac16eb6eE
libvulkan_nouveau.so:_ZN4core5slice4sort6stable14driftsort_main17haeaa01497a01bb5dE
libvulkan_nouveau.so:_ZN4core5slice4sort6stable5drift11sqrt_approx17ha667a57dd8f38d41E
libvulkan_nouveau.so:_ZN4core5slice4sort6stable9quicksort9quicksort17h2ad60385c1f6d022E
libvulkan_nouveau.so:_ZN4core5slice4sort6stable9quicksort9quicksort17h4a1e88fd922995e6E
libvulkan_nouveau.so:_ZN4core5slice4sort6stable9quicksort9quicksort17h552f802af3b710ebE
libvulkan_nouveau.so:_ZN4core5slice4sort6stable9quicksort9quicksort17h9bfef011ef139025E
libvulkan_nouveau.so:_ZN4core5slice4sort6stable9quicksort9quicksort17hfa26c5de8eb06417E
libvulkan_nouveau.so:_ZN4core5slice4sort8unstable7ipnsort17h66725ceac214e9ebE
libvulkan_nouveau.so:_ZN4core5slice4sort8unstable8heapsort8heapsort17h430e9c0b0aff34f2E
libvulkan_nouveau.so:_ZN4core5slice5index10into_range17hb7e38ab28f99a19bE
libvulkan_nouveau.so:_ZN4core5slice5index16into_slice_range17hd696fa89aace3dcfE
libvulkan_nouveau.so:_ZN4core5slice5index22slice_index_order_fail17h9783f7b34d308d10E
libvulkan_nouveau.so:_ZN4core5slice5index22slice_index_order_fail8do_panic7runtime17h1f11a8bbabd0ed0bE
libvulkan_nouveau.so:_ZN4core5slice5index24slice_end_index_len_fail17hd262528e2c70c895E
libvulkan_nouveau.so:_ZN4core5slice5index24slice_end_index_len_fail8do_panic7runtime17h6eaafd44b4078557E
libvulkan_nouveau.so:_ZN4core5slice5index26slice_start_index_len_fail17hed5e7b51d3b0d276E
libvulkan_nouveau.so:_ZN4core5slice5index26slice_start_index_len_fail8do_panic7runtime17h32c72c44541c91d3E
libvulkan_nouveau.so:_ZN4core5slice5index29slice_end_index_overflow_fail17h377dfcf1346fadcfE
libvulkan_nouveau.so:_ZN4core5slice5index31slice_start_index_overflow_fail17h0a5d11ade9dbfa32E
libvulkan_nouveau.so:_ZN4core5slice6memchr14memchr_aligned17h559b4f9727743e79E
libvulkan_nouveau.so:_ZN4core5slice6memchr7memrchr17hd5fafd199863aae8E
libvulkan_nouveau.so:_ZN4core6option13expect_failed17hc72a7cc54e341267E
libvulkan_nouveau.so:_ZN4core6option13unwrap_failed17he398a2e9afe36271E
libvulkan_nouveau.so:_ZN4core6option15Option$LT$T$GT$3map17h66c507bb4119db9eE
libvulkan_nouveau.so:_ZN4core6option15Option$LT$T$GT$3map17h728c8d1aca07b695E
libvulkan_nouveau.so:_ZN4core6option15Option$LT$T$GT$3map17h982aca301ab864f1E
libvulkan_nouveau.so:_ZN4core6option15Option$LT$T$GT$3map17h9c49acc75400c12bE
libvulkan_nouveau.so:_ZN4core6option15Option$LT$T$GT$3map17ha282065d2b98a4d4E
libvulkan_nouveau.so:_ZN4core6option15Option$LT$T$GT$3map17habb4ea21f1f532e5E
libvulkan_nouveau.so:_ZN4core6result13unwrap_failed17hb2f388c32776bb9dE
libvulkan_nouveau.so:_ZN4core6result19Result$LT$T$C$E$GT$6expect17ha0cf8ba550f01fb9E
libvulkan_nouveau.so:_ZN4core6result19Result$LT$T$C$E$GT$7map_err17h9e9226e4443e6139E
libvulkan_nouveau.so:_ZN4core7unicode12unicode_data10alphabetic6lookup17h48ee918534628ef5E
libvulkan_nouveau.so:_ZN4core7unicode12unicode_data11conversions8to_lower17ha1e15808aeca5988E
libvulkan_nouveau.so:_ZN4core7unicode12unicode_data11conversions8to_upper17h3afaa9bd10669506E
libvulkan_nouveau.so:_ZN4core7unicode12unicode_data14case_ignorable6lookup17h1a35c389f18322b7E
libvulkan_nouveau.so:_ZN4core7unicode12unicode_data15grapheme_extend11lookup_slow17hd166d9b7dee20108E
libvulkan_nouveau.so:_ZN4core7unicode12unicode_data1n6lookup17hcf16629068d18fb3E
libvulkan_nouveau.so:_ZN4core7unicode12unicode_data2cc6lookup17h099bc103e0bebaaaE
libvulkan_nouveau.so:_ZN4core7unicode12unicode_data5cased6lookup17h4ef8165a36787b5fE
libvulkan_nouveau.so:_ZN4core7unicode12unicode_data9lowercase6lookup17h20e54aacf765ba52E
libvulkan_nouveau.so:_ZN4core7unicode12unicode_data9uppercase6lookup17h56e6cd6b6ac98e3eE
libvulkan_nouveau.so:_ZN4core7unicode9printable12is_printable17h873e3d162b746f67E
libvulkan_nouveau.so:_ZN4core9panicking11panic_const23panic_const_div_by_zero17hbdfb9a7ba6067444E
libvulkan_nouveau.so:_ZN4core9panicking11panic_const23panic_const_gen_fn_none17h8c5ae4505b356f45E
libvulkan_nouveau.so:_ZN4core9panicking11panic_const23panic_const_rem_by_zero17hf05cf1e5a0b27cc3E
libvulkan_nouveau.so:_ZN4core9panicking11panic_const24panic_const_add_overflow17hf2fc9f6b13cef073E
libvulkan_nouveau.so:_ZN4core9panicking11panic_const24panic_const_div_overflow17h23822d7510c38339E
libvulkan_nouveau.so:_ZN4core9panicking11panic_const24panic_const_mul_overflow17hd261ddb6cad18563E
libvulkan_nouveau.so:_ZN4core9panicking11panic_const24panic_const_neg_overflow17h8b0fa5d7c1176c36E
libvulkan_nouveau.so:_ZN4core9panicking11panic_const24panic_const_rem_overflow17h45df567c0bc80c85E
libvulkan_nouveau.so:_ZN4core9panicking11panic_const24panic_const_shl_overflow17h44d584c9d562cfbbE
libvulkan_nouveau.so:_ZN4core9panicking11panic_const24panic_const_shr_overflow17he89ad0df4a523aa1E
libvulkan_nouveau.so:_ZN4core9panicking11panic_const24panic_const_sub_overflow17h5cfb43048c094ee1E
libvulkan_nouveau.so:_ZN4core9panicking11panic_const28panic_const_async_fn_resumed17hd41ff90360e4cb66E
libvulkan_nouveau.so:_ZN4core9panicking11panic_const29panic_const_coroutine_resumed17h6a3b8d8de7210cc9E
libvulkan_nouveau.so:_ZN4core9panicking11panic_const29panic_const_gen_fn_none_panic17h07e6009b7fa7618bE
libvulkan_nouveau.so:_ZN4core9panicking11panic_const32panic_const_async_gen_fn_resumed17h4bd8fdead018085eE
libvulkan_nouveau.so:_ZN4core9panicking11panic_const34panic_const_async_fn_resumed_panic17h1760d4e9b3367c32E
libvulkan_nouveau.so:_ZN4core9panicking11panic_const35panic_const_coroutine_resumed_panic17h329b2b189f5a3833E
libvulkan_nouveau.so:_ZN4core9panicking11panic_const38panic_const_async_gen_fn_resumed_panic17h647ae20d86c06a7aE
libvulkan_nouveau.so:_ZN4core9panicking13assert_failed17h28588c1f69ac9939E
libvulkan_nouveau.so:_ZN4core9panicking13assert_failed17h3169a88dabc2ab9fE
libvulkan_nouveau.so:_ZN4core9panicking13assert_failed17hd33e636e3e683c3fE
libvulkan_nouveau.so:_ZN4core9panicking13assert_failed17hd5c760d94b8e40c2E
libvulkan_nouveau.so:_ZN4core9panicking13assert_failed17he0157a8ca0fe829aE
libvulkan_nouveau.so:_ZN4core9panicking13assert_failed17hfac77ee86be312a8E
libvulkan_nouveau.so:_ZN4core9panicking14panic_explicit17hcc492f9437bf665fE
libvulkan_nouveau.so:_ZN4core9panicking14panic_nounwind17hcfd9893f8dba144aE
libvulkan_nouveau.so:_ZN4core9panicking15const_panic_fmt17hdde34a15e6e34d2fE
libvulkan_nouveau.so:_ZN4core9panicking16panic_in_cleanup17h94908e5673d1dc19E
libvulkan_nouveau.so:_ZN4core9panicking18panic_bounds_check17hcef060ee3fb78820E
libvulkan_nouveau.so:_ZN4core9panicking18panic_nounwind_fmt17h75263ea0cd326659E
libvulkan_nouveau.so:_ZN4core9panicking19assert_failed_inner17ha85042726bee5008E
libvulkan_nouveau.so:_ZN4core9panicking19panic_cannot_unwind17ha2655aeb54a6187eE
libvulkan_nouveau.so:_ZN4core9panicking26panic_nounwind_nobacktrace17hab4274a24d241732E
libvulkan_nouveau.so:_ZN4core9panicking36panic_misaligned_pointer_dereference17hc0b77ad1ac3d8272E
libvulkan_nouveau.so:_ZN4core9panicking5panic17h524e07a7de4ffd01E
libvulkan_nouveau.so:_ZN4core9panicking9panic_fmt17hc15a671d0c4ef852E
libvulkan_nouveau.so:_ZN50_$LT$T$u20$as$u20$core..convert..Into$LT$U$GT$$GT$4into17h3da0dfee35a26106E
libvulkan_nouveau.so:_ZN50_$LT$T$u20$as$u20$core..convert..Into$LT$U$GT$$GT$4into17h6c74fa4aa1a33212E
libvulkan_nouveau.so:_ZN50_$LT$T$u20$as$u20$core..convert..Into$LT$U$GT$$GT$4into17h83ad3aed8d877426E
libvulkan_nouveau.so:_ZN50_$LT$T$u20$as$u20$core..convert..Into$LT$U$GT$$GT$4into17h9ad1617ffadb4362E
libvulkan_nouveau.so:_ZN50_$LT$T$u20$as$u20$core..convert..Into$LT$U$GT$$GT$4into17hc3c21affc00f2c5bE
libvulkan_nouveau.so:_ZN50_$LT$T$u20$as$u20$core..convert..Into$LT$U$GT$$GT$4into17he34a217103bdd6d5E
libvulkan_nouveau.so:_ZN50_$LT$std..fs..File$u20$as$u20$core..fmt..Debug$GT$3fmt17h8e54ce41d12f272bE
libvulkan_nouveau.so:_ZN50_$LT$u16$u20$as$u20$core..num..bignum..FullOps$GT$12full_div_rem17hd1780b00a8900cf6E
libvulkan_nouveau.so:_ZN50_$LT$u32$u20$as$u20$core..num..bignum..FullOps$GT$12full_div_rem17h0eafcf0716242191E
libvulkan_nouveau.so:_ZN51_$LT$$RF$std..fs..File$u20$as$u20$std..io..Read$GT$11read_to_end17h161a3245f76a3dffE
libvulkan_nouveau.so:_ZN51_$LT$$RF$std..fs..File$u20$as$u20$std..io..Read$GT$14read_to_string17h75eb26a323103f1aE
libvulkan_nouveau.so:_ZN51_$LT$$RF$std..fs..File$u20$as$u20$std..io..Seek$GT$4seek17h99dacf6c3b83dbeeE
libvulkan_nouveau.so:_ZN51_$LT$std..env..Args$u20$as$u20$core..fmt..Debug$GT$3fmt17hf101be32bd3d3eb0E
libvulkan_nouveau.so:_ZN51_$LT$std..env..Vars$u20$as$u20$core..fmt..Debug$GT$3fmt17h34ca3be2240dd8a2E
libvulkan_nouveau.so:_ZN52_$LT$$RF$std..fs..File$u20$as$u20$std..io..Write$GT$14write_vectored17hc9d758439ebb7bceE
libvulkan_nouveau.so:_ZN52_$LT$$RF$std..fs..File$u20$as$u20$std..io..Write$GT$5write17he900d4186e5d0684E
libvulkan_nouveau.so:_ZN52_$LT$T$u20$as$u20$alloc..slice..hack..ConvertVec$GT$6to_vec17hb0e2ff60cf81994dE
libvulkan_nouveau.so:_ZN52_$LT$std..path..Iter$u20$as$u20$core..fmt..Debug$GT$3fmt17hc04a5953cb49021aE
libvulkan_nouveau.so:_ZN52_$LT$std..path..Path$u20$as$u20$core..fmt..Debug$GT$3fmt17h8221f82c7684eb4cE
libvulkan_nouveau.so:_ZN53_$LT$$u5b$u8$u5d$$u20$as$u20$bitview..BitViewable$GT$17get_bit_range_u6417h6a2b084ffad77ac7E
libvulkan_nouveau.so:_ZN53_$LT$$u5b$u8$u5d$$u20$as$u20$bitview..BitViewable$GT$4bits17he8559da6f85f955fE
libvulkan_nouveau.so:_ZN53_$LT$T$u20$as$u20$core..convert..TryFrom$LT$U$GT$$GT$8try_from17ha5b9f559e0191dccE
libvulkan_nouveau.so:_ZN53_$LT$T$u20$as$u20$core..convert..TryInto$LT$U$GT$$GT$8try_into17h68b5074c365753e2E
libvulkan_nouveau.so:_ZN53_$LT$T$u20$as$u20$core..convert..TryInto$LT$U$GT$$GT$8try_into17h6e382086ea011556E
libvulkan_nouveau.so:_ZN53_$LT$T$u20$as$u20$core..convert..TryInto$LT$U$GT$$GT$8try_into17h6ff25d5b141a2a17E
libvulkan_nouveau.so:_ZN53_$LT$T$u20$as$u20$core..convert..TryInto$LT$U$GT$$GT$8try_into17hdb5942d13e3c9fb2E
libvulkan_nouveau.so:_ZN53_$LT$T$u20$as$u20$core..convert..TryInto$LT$U$GT$$GT$8try_into17he5cf3bfd3beba69cE
libvulkan_nouveau.so:_ZN53_$LT$adler..Adler32$u20$as$u20$core..hash..Hasher$GT$5write17hfa171810aec11159E
libvulkan_nouveau.so:_ZN53_$LT$std..env..ArgsOs$u20$as$u20$core..fmt..Debug$GT$3fmt17h66a77f5e26d1ba6dE
libvulkan_nouveau.so:_ZN53_$LT$std..env..VarsOs$u20$as$u20$core..fmt..Debug$GT$3fmt17h4e6a329796b0a9adE
libvulkan_nouveau.so:_ZN53_$LT$std..io..IoSlice$u20$as$u20$core..fmt..Debug$GT$3fmt17he9f20ff0e5f3fce0E
libvulkan_nouveau.so:_ZN54_$LT$$u5b$u16$u5d$$u20$as$u20$bitview..BitViewable$GT$17get_bit_range_u6417h711686a10323c5ddE
libvulkan_nouveau.so:_ZN54_$LT$$u5b$u16$u5d$$u20$as$u20$bitview..BitViewable$GT$4bits17h5a0568024ba43d92E
libvulkan_nouveau.so:_ZN54_$LT$$u5b$u32$u5d$$u20$as$u20$bitview..BitViewable$GT$17get_bit_range_u6417h57926e6bed8cbec7E
libvulkan_nouveau.so:_ZN54_$LT$$u5b$u32$u5d$$u20$as$u20$bitview..BitViewable$GT$4bits17hc25cf57f0b08834dE
libvulkan_nouveau.so:_ZN54_$LT$$u5b$u64$u5d$$u20$as$u20$bitview..BitViewable$GT$17get_bit_range_u6417h4b726fa7ab1ad06bE
libvulkan_nouveau.so:_ZN54_$LT$$u5b$u64$u5d$$u20$as$u20$bitview..BitViewable$GT$4bits17h211c8b153efd5aacE
libvulkan_nouveau.so:_ZN54_$LT$core..any..TypeId$u20$as$u20$core..fmt..Debug$GT$3fmt17h66403621c0f8a659E
libvulkan_nouveau.so:_ZN54_$LT$core..ffi..c_void$u20$as$u20$core..fmt..Debug$GT$3fmt17h6dc3e5177a27aea5E
libvulkan_nouveau.so:_ZN54_$LT$std..fs..DirEntry$u20$as$u20$core..fmt..Debug$GT$3fmt17hc7948498a50eaaa0E
libvulkan_nouveau.so:_ZN54_$LT$std..fs..FileType$u20$as$u20$core..fmt..Debug$GT$3fmt17ha05c17db776539dfE
libvulkan_nouveau.so:_ZN54_$LT$std..fs..Metadata$u20$as$u20$core..fmt..Debug$GT$3fmt17h7d57d83310345686E
libvulkan_nouveau.so:_ZN55_$LT$core..fmt..Error$u20$as$u20$core..fmt..Display$GT$3fmt17h1cf1733c9681e4f5E
libvulkan_nouveau.so:_ZN55_$LT$f32$u20$as$u20$core..fmt..float..GeneralFormat$GT$44already_rounded_value_should_use_exponential17hacdff0249dcb28b6E
libvulkan_nouveau.so:_ZN55_$LT$f64$u20$as$u20$core..fmt..float..GeneralFormat$GT$44already_rounded_value_should_use_exponential17hd571e3a45bd2c01fE
libvulkan_nouveau.so:_ZN55_$LT$std..io..stdio..Stdin$u20$as$u20$std..io..Read$GT$10read_exact17hc94e11192ca92c93E
libvulkan_nouveau.so:_ZN55_$LT$std..io..stdio..Stdin$u20$as$u20$std..io..Read$GT$11read_to_end17h293b6e448895c989E
libvulkan_nouveau.so:_ZN55_$LT$std..io..stdio..Stdin$u20$as$u20$std..io..Read$GT$13read_vectored17hc5b93a1bfdae6781E
libvulkan_nouveau.so:_ZN55_$LT$std..io..stdio..Stdin$u20$as$u20$std..io..Read$GT$14read_buf_exact17h8cc1a25c8a5cd947E
libvulkan_nouveau.so:_ZN55_$LT$std..io..stdio..Stdin$u20$as$u20$std..io..Read$GT$14read_to_string17h3e9fe83c01817a0aE
libvulkan_nouveau.so:_ZN55_$LT$std..io..stdio..Stdin$u20$as$u20$std..io..Read$GT$4read17h7ef8e4ff14b16db2E
libvulkan_nouveau.so:_ZN55_$LT$std..io..stdio..Stdin$u20$as$u20$std..io..Read$GT$8read_buf17h4e52a2aa0286ca7bE
libvulkan_nouveau.so:_ZN55_$LT$std..io..util..Repeat$u20$as$u20$std..io..Read$GT$8read_buf17h3a6664424aa6dff1E
libvulkan_nouveau.so:_ZN55_$LT$std..path..Display$u20$as$u20$core..fmt..Debug$GT$3fmt17h572f02d9027e5877E
libvulkan_nouveau.so:_ZN55_$LT$std..path..PathBuf$u20$as$u20$core..fmt..Debug$GT$3fmt17h02cb04151ba4adf1E
libvulkan_nouveau.so:_ZN55_$LT$std..pipe..PipeReader$u20$as$u20$std..io..Read$GT$11read_to_end17hc2f781c0b7a9c94dE
libvulkan_nouveau.so:_ZN55_$LT$std..pipe..PipeReader$u20$as$u20$std..io..Read$GT$13read_vectored17h73ad3c9a3661988eE
libvulkan_nouveau.so:_ZN55_$LT$std..pipe..PipeReader$u20$as$u20$std..io..Read$GT$4read17h7c28985bc207dc01E
libvulkan_nouveau.so:_ZN55_$LT$std..pipe..PipeReader$u20$as$u20$std..io..Read$GT$8read_buf17h4ca03be3224aa146E
libvulkan_nouveau.so:_ZN55_$LT$std..time..Instant$u20$as$u20$core..fmt..Debug$GT$3fmt17h519f3cf3a38b3294E
libvulkan_nouveau.so:_ZN56_$LT$$u5b$u8$u5d$$u20$as$u20$bitview..BitMutViewable$GT$17set_bit_range_u6417h83ff8c45b4bfb61aE
libvulkan_nouveau.so:_ZN56_$LT$std..io..IoSliceMut$u20$as$u20$core..fmt..Debug$GT$3fmt17hae08254954a0e39dE
libvulkan_nouveau.so:_ZN56_$LT$std..pipe..PipeWriter$u20$as$u20$std..io..Write$GT$14write_vectored17hce7534e96b31fc0eE
libvulkan_nouveau.so:_ZN56_$LT$std..pipe..PipeWriter$u20$as$u20$std..io..Write$GT$5write17h69c6a46fe9973a26E
libvulkan_nouveau.so:_ZN56_$LT$std..process..Child$u20$as$u20$core..fmt..Debug$GT$3fmt17h75506bd843773cebE
libvulkan_nouveau.so:_ZN56_$LT$std..process..Stdio$u20$as$u20$core..fmt..Debug$GT$3fmt17h5a0a11eeac8e93eaE
libvulkan_nouveau.so:_ZN56_$LT$std..thread..Thread$u20$as$u20$core..fmt..Debug$GT$3fmt17h89d791f24beee9cbE
libvulkan_nouveau.so:_ZN57_$LT$$u5b$u16$u5d$$u20$as$u20$bitview..BitMutViewable$GT$17set_bit_range_u6417h9e47f93635a4cf17E
libvulkan_nouveau.so:_ZN57_$LT$$u5b$u32$u5d$$u20$as$u20$bitview..BitMutViewable$GT$17set_bit_range_u6417h819d0048c8b8a977E
libvulkan_nouveau.so:_ZN57_$LT$$u5b$u64$u5d$$u20$as$u20$bitview..BitMutViewable$GT$17set_bit_range_u6417hff51fdceabdbd6daE
libvulkan_nouveau.so:_ZN57_$LT$alloc..string..Drain$u20$as$u20$core..fmt..Debug$GT$3fmt17h5738b4f28020e0caE
libvulkan_nouveau.so:_ZN57_$LT$core..error..Request$u20$as$u20$core..fmt..Debug$GT$3fmt17h19e7cd742f7b7120E
libvulkan_nouveau.so:_ZN57_$LT$core..fmt..Arguments$u20$as$u20$core..fmt..Debug$GT$3fmt17h6f4fce74a64ff366E
libvulkan_nouveau.so:_ZN57_$LT$core..fmt..Formatter$u20$as$u20$core..fmt..Write$GT$10write_char17h3495910f4abb7d0fE
libvulkan_nouveau.so:_ZN57_$LT$core..fmt..Formatter$u20$as$u20$core..fmt..Write$GT$9write_str17hcf3aeebd0ffdfb05E
libvulkan_nouveau.so:_ZN57_$LT$core..time..Duration$u20$as$u20$core..fmt..Debug$GT$3fmt17h01703cf1e901c6e6E
libvulkan_nouveau.so:_ZN57_$LT$std..env..SplitPaths$u20$as$u20$core..fmt..Debug$GT$3fmt17h9d1aaad4861401f8E
libvulkan_nouveau.so:_ZN57_$LT$std..env..VarError$u20$as$u20$core..fmt..Display$GT$3fmt17h1545ff99fa507587E
libvulkan_nouveau.so:_ZN57_$LT$std..io..stdio..Stderr$u20$as$u20$std..io..Write$GT$14write_vectored17hc4a72cfac1418e43E
libvulkan_nouveau.so:_ZN57_$LT$std..io..stdio..Stderr$u20$as$u20$std..io..Write$GT$18write_all_vectored17h08d41e0975c8b14cE
libvulkan_nouveau.so:_ZN57_$LT$std..io..stdio..Stderr$u20$as$u20$std..io..Write$GT$5flush17h1511711b443b00dcE
libvulkan_nouveau.so:_ZN57_$LT$std..io..stdio..Stderr$u20$as$u20$std..io..Write$GT$5write17had8c08d7031d1d76E
libvulkan_nouveau.so:_ZN57_$LT$std..io..stdio..Stderr$u20$as$u20$std..io..Write$GT$9write_all17hbe70cb4dc40c4fe7E
libvulkan_nouveau.so:_ZN57_$LT$std..io..stdio..Stderr$u20$as$u20$std..io..Write$GT$9write_fmt17he57a93b07d0a4078E
libvulkan_nouveau.so:_ZN57_$LT$std..io..stdio..Stdout$u20$as$u20$std..io..Write$GT$14write_vectored17h23c87f6314f78dd2E
libvulkan_nouveau.so:_ZN57_$LT$std..io..stdio..Stdout$u20$as$u20$std..io..Write$GT$18write_all_vectored17h9c0bb77a7296b030E
libvulkan_nouveau.so:_ZN57_$LT$std..io..stdio..Stdout$u20$as$u20$std..io..Write$GT$5flush17h4b050830dedb58f1E
libvulkan_nouveau.so:_ZN57_$LT$std..io..stdio..Stdout$u20$as$u20$std..io..Write$GT$5write17hc6242f784669be62E
libvulkan_nouveau.so:_ZN57_$LT$std..io..stdio..Stdout$u20$as$u20$std..io..Write$GT$9write_all17h7082b469089d8de1E
libvulkan_nouveau.so:_ZN57_$LT$std..io..stdio..Stdout$u20$as$u20$std..io..Write$GT$9write_fmt17hf946bc4a56435198E
libvulkan_nouveau.so:_ZN57_$LT$std..path..Display$u20$as$u20$core..fmt..Display$GT$3fmt17h134759e384a7019dE
libvulkan_nouveau.so:_ZN57_$LT$std..process..Output$u20$as$u20$core..fmt..Debug$GT$3fmt17h2be8ee3c8bba2976E
libvulkan_nouveau.so:_ZN58_$LT$std..io..error..Error$u20$as$u20$core..fmt..Debug$GT$3fmt17h6de6462d204e9d98E
libvulkan_nouveau.so:_ZN58_$LT$std..io..stdio..Stdin$u20$as$u20$core..fmt..Debug$GT$3fmt17h000ec816fbdde6f0E
libvulkan_nouveau.so:_ZN58_$LT$std..io..stdio..StdinRaw$u20$as$u20$std..io..Read$GT$11read_to_end17hfd122e724d004910E
libvulkan_nouveau.so:_ZN58_$LT$std..io..stdio..StdinRaw$u20$as$u20$std..io..Read$GT$13read_vectored17hdf17ce0498c38890E
libvulkan_nouveau.so:_ZN58_$LT$std..io..stdio..StdinRaw$u20$as$u20$std..io..Read$GT$14read_to_string17he259bef99763682dE
libvulkan_nouveau.so:_ZN58_$LT$std..io..stdio..StdinRaw$u20$as$u20$std..io..Read$GT$4read17h690e94021f55de00E
libvulkan_nouveau.so:_ZN58_$LT$std..io..stdio..StdinRaw$u20$as$u20$std..io..Read$GT$8read_buf17h4646a4a48fcdbceeE
libvulkan_nouveau.so:_ZN58_$LT$std..io..util..Repeat$u20$as$u20$core..fmt..Debug$GT$3fmt17h02ea712d3b4832c5E
libvulkan_nouveau.so:_ZN58_$LT$std..net..tcp..TcpStream$u20$as$u20$std..io..Read$GT$13read_vectored17he83f396927717e89E
libvulkan_nouveau.so:_ZN58_$LT$std..net..tcp..TcpStream$u20$as$u20$std..io..Read$GT$4read17h40d0737f33965ee1E
libvulkan_nouveau.so:_ZN58_$LT$std..net..tcp..TcpStream$u20$as$u20$std..io..Read$GT$8read_buf17h6866ccb306a79fd9E
libvulkan_nouveau.so:_ZN58_$LT$std..path..Components$u20$as$u20$core..fmt..Debug$GT$3fmt17hbeb7f10d3a077ad6E
libvulkan_nouveau.so:_ZN58_$LT$std..process..Command$u20$as$u20$core..fmt..Debug$GT$3fmt17hc7e879053b397d79E
libvulkan_nouveau.so:_ZN58_$LT$std..time..SystemTime$u20$as$u20$core..fmt..Debug$GT$3fmt17h59968301101efc59E
libvulkan_nouveau.so:_ZN59_$LT$$RF$std..io..stdio..Stdin$u20$as$u20$std..io..Read$GT$10read_exact17hdfb19c4324c7f51fE
libvulkan_nouveau.so:_ZN59_$LT$$RF$std..io..stdio..Stdin$u20$as$u20$std..io..Read$GT$11read_to_end17h43a0f6edcc3d1343E
libvulkan_nouveau.so:_ZN59_$LT$$RF$std..io..stdio..Stdin$u20$as$u20$std..io..Read$GT$13read_vectored17h4f4b9dd8a8048aadE
libvulkan_nouveau.so:_ZN59_$LT$$RF$std..io..stdio..Stdin$u20$as$u20$std..io..Read$GT$14read_buf_exact17h906447978998e8b1E
libvulkan_nouveau.so:_ZN59_$LT$$RF$std..io..stdio..Stdin$u20$as$u20$std..io..Read$GT$14read_to_string17h9e259c0cf65e7d9fE
libvulkan_nouveau.so:_ZN59_$LT$$RF$std..io..stdio..Stdin$u20$as$u20$std..io..Read$GT$4read17h5a949079c472b79aE
libvulkan_nouveau.so:_ZN59_$LT$$RF$std..io..stdio..Stdin$u20$as$u20$std..io..Read$GT$8read_buf17h60a8b48679c33629E
libvulkan_nouveau.so:_ZN59_$LT$$RF$std..pipe..PipeReader$u20$as$u20$std..io..Read$GT$11read_to_end17h7c60a4237ff55454E
libvulkan_nouveau.so:_ZN59_$LT$$RF$std..pipe..PipeReader$u20$as$u20$std..io..Read$GT$13read_vectored17haef2cf7426eb773aE
libvulkan_nouveau.so:_ZN59_$LT$$RF$std..pipe..PipeReader$u20$as$u20$std..io..Read$GT$4read17h7765b3e3546ea6b2E
libvulkan_nouveau.so:_ZN59_$LT$$RF$std..pipe..PipeReader$u20$as$u20$std..io..Read$GT$8read_buf17h2dec9da7e0443fedE
libvulkan_nouveau.so:_ZN59_$LT$core..ffi..c_str..CStr$u20$as$u20$core..fmt..Debug$GT$3fmt17hbaf1f4e1e35f7f96E
libvulkan_nouveau.so:_ZN59_$LT$core..fmt..Arguments$u20$as$u20$core..fmt..Display$GT$3fmt17h64221dc8a8766e91E
libvulkan_nouveau.so:_ZN59_$LT$core..str..iter..Chars$u20$as$u20$core..fmt..Debug$GT$3fmt17h14bb0b01648b433dE
libvulkan_nouveau.so:_ZN59_$LT$dyn$u20$core..any..Any$u20$as$u20$core..fmt..Debug$GT$3fmt17h331fb7097552dae5E
libvulkan_nouveau.so:_ZN59_$LT$f32$u20$as$u20$core..num..dec2flt..float..RawFloat$GT$15pow10_fast_path17h74a1b3070b25f5e0E
libvulkan_nouveau.so:_ZN59_$LT$f64$u20$as$u20$core..num..dec2flt..float..RawFloat$GT$15pow10_fast_path17h07dbe9315ed3e012E
libvulkan_nouveau.so:_ZN59_$LT$std..io..stdio..Stderr$u20$as$u20$core..fmt..Debug$GT$3fmt17hefd247ee308749b7E
libvulkan_nouveau.so:_ZN59_$LT$std..io..stdio..StdinLock$u20$as$u20$std..io..Read$GT$10read_exact17h92a7fe79585c71a3E
libvulkan_nouveau.so:_ZN59_$LT$std..io..stdio..StdinLock$u20$as$u20$std..io..Read$GT$11read_to_end17hfa67f35a49eedfa3E
libvulkan_nouveau.so:_ZN59_$LT$std..io..stdio..StdinLock$u20$as$u20$std..io..Read$GT$13read_vectored17h950ae5fbbe8ae20aE
libvulkan_nouveau.so:_ZN59_$LT$std..io..stdio..StdinLock$u20$as$u20$std..io..Read$GT$14read_buf_exact17h4703496eb245594bE
libvulkan_nouveau.so:_ZN59_$LT$std..io..stdio..StdinLock$u20$as$u20$std..io..Read$GT$14read_to_string17h1086fe0c45371e67E
libvulkan_nouveau.so:_ZN59_$LT$std..io..stdio..StdinLock$u20$as$u20$std..io..Read$GT$4read17hf6c43521965cd9aaE
libvulkan_nouveau.so:_ZN59_$LT$std..io..stdio..StdinLock$u20$as$u20$std..io..Read$GT$8read_buf17h9b6e9dbbe6b0c0e8E
libvulkan_nouveau.so:_ZN59_$LT$std..io..stdio..Stdout$u20$as$u20$core..fmt..Debug$GT$3fmt17h8039429c88db83a0E
libvulkan_nouveau.so:_ZN59_$LT$std..net..tcp..TcpStream$u20$as$u20$std..io..Write$GT$14write_vectored17h9a554a976964633eE
libvulkan_nouveau.so:_ZN59_$LT$std..net..tcp..TcpStream$u20$as$u20$std..io..Write$GT$5write17h1ab5f21a17211eedE
libvulkan_nouveau.so:_ZN59_$LT$std..process..ChildStderr$u20$as$u20$std..io..Read$GT$11read_to_end17h20315831db49a617E
libvulkan_nouveau.so:_ZN59_$LT$std..process..ChildStderr$u20$as$u20$std..io..Read$GT$13read_vectored17h93cfbe48570f7a68E
libvulkan_nouveau.so:_ZN59_$LT$std..process..ChildStderr$u20$as$u20$std..io..Read$GT$4read17hde37dec3cd8c9318E
libvulkan_nouveau.so:_ZN59_$LT$std..process..ChildStderr$u20$as$u20$std..io..Read$GT$8read_buf17h68bce82be3d36eb5E
libvulkan_nouveau.so:_ZN59_$LT$std..process..ChildStdin$u20$as$u20$std..io..Write$GT$14write_vectored17hdc6188e8b1cf075aE
libvulkan_nouveau.so:_ZN59_$LT$std..process..ChildStdin$u20$as$u20$std..io..Write$GT$5write17hbc75618acedee64cE
libvulkan_nouveau.so:_ZN59_$LT$std..process..ChildStdout$u20$as$u20$std..io..Read$GT$11read_to_end17hf8a193c843b3d468E
libvulkan_nouveau.so:_ZN59_$LT$std..process..ChildStdout$u20$as$u20$std..io..Read$GT$13read_vectored17h180843b1c042f515E
libvulkan_nouveau.so:_ZN59_$LT$std..process..ChildStdout$u20$as$u20$std..io..Read$GT$4read17hb15aa77305eccc22E
libvulkan_nouveau.so:_ZN59_$LT$std..process..ChildStdout$u20$as$u20$std..io..Read$GT$8read_buf17h0ce66817a874a9e7E
libvulkan_nouveau.so:_ZN5adler13adler32_slice17h427a324d3cb09f93E
libvulkan_nouveau.so:_ZN5adler7Adler3211write_slice17h5ca0b0809f0dc1b6E
libvulkan_nouveau.so:_ZN5alloc11collections5btree3map25BTreeMap$LT$K$C$V$C$A$GT$3get17h16aa68b80b56ba20E
libvulkan_nouveau.so:_ZN5alloc11collections5btree3map25BTreeMap$LT$K$C$V$C$A$GT$5entry17h165c2d1c2fa49255E
libvulkan_nouveau.so:_ZN5alloc11collections5btree3map5entry28VacantEntry$LT$K$C$V$C$A$GT$12insert_entry17hb21ba6781ed84495E
libvulkan_nouveau.so:_ZN5alloc11collections5btree3map5entry30OccupiedEntry$LT$K$C$V$C$A$GT$8into_mut17h2fa8c2ef1b4c42e0E
libvulkan_nouveau.so:_ZN5alloc11collections5btree4node115NodeRef$LT$alloc..collections..btree..node..marker..Mut$C$K$C$V$C$alloc..collections..btree..node..marker..Leaf$GT$16push_with_handle17h56418addc624d108E
libvulkan_nouveau.so:_ZN5alloc11collections5btree4node117NodeRef$LT$alloc..collections..btree..node..marker..Owned$C$K$C$V$C$alloc..collections..btree..node..marker..Leaf$GT$8new_leaf17h645e2fae81686db8E
libvulkan_nouveau.so:_ZN5alloc11collections5btree4node119NodeRef$LT$alloc..collections..btree..node..marker..Mut$C$K$C$V$C$alloc..collections..btree..node..marker..Internal$GT$30correct_childrens_parent_links17hbf422e716e08222dE
libvulkan_nouveau.so:_ZN5alloc11collections5btree4node119NodeRef$LT$alloc..collections..btree..node..marker..Mut$C$K$C$V$C$alloc..collections..btree..node..marker..Internal$GT$30correct_childrens_parent_links17hea38ea5a4991d044E
libvulkan_nouveau.so:_ZN5alloc11collections5btree4node119NodeRef$LT$alloc..collections..btree..node..marker..Mut$C$K$C$V$C$alloc..collections..btree..node..marker..Internal$GT$4push17h2b3d9bb3d4e5201eE
libvulkan_nouveau.so:_ZN5alloc11collections5btree4node121NodeRef$LT$alloc..collections..btree..node..marker..Owned$C$K$C$V$C$alloc..collections..btree..node..marker..Internal$GT$12new_internal17hfd9b277cd24c9592E
libvulkan_nouveau.so:_ZN5alloc11collections5btree4node121NodeRef$LT$alloc..collections..btree..node..marker..Owned$C$K$C$V$C$alloc..collections..btree..node..marker..Internal$GT$17from_new_internal17h6b714ad511074d35E
libvulkan_nouveau.so:_ZN5alloc11collections5btree4node12slice_insert17h487ea7666a51ebe0E
libvulkan_nouveau.so:_ZN5alloc11collections5btree4node12slice_insert17hac453fcbf47c71f7E
libvulkan_nouveau.so:_ZN5alloc11collections5btree4node12slice_insert17hd7bc8321dbe930a4E
libvulkan_nouveau.so:_ZN5alloc11collections5btree4node13move_to_slice17h45680e594ae96b37E
libvulkan_nouveau.so:_ZN5alloc11collections5btree4node13move_to_slice17h89b9769f399a25f2E
libvulkan_nouveau.so:_ZN5alloc11collections5btree4node13move_to_slice17he55679f1bc99c618E
libvulkan_nouveau.so:_ZN5alloc11collections5btree4node171Handle$LT$alloc..collections..btree..node..NodeRef$LT$alloc..collections..btree..node..marker..Mut$C$K$C$V$C$NodeType$GT$$C$alloc..collections..btree..node..marker..KV$GT$12into_val_mut17hadd89711d6b63db7E
libvulkan_nouveau.so:_ZN5alloc11collections5btree4node171Handle$LT$alloc..collections..btree..node..NodeRef$LT$alloc..collections..btree..node..marker..Mut$C$K$C$V$C$NodeType$GT$$C$alloc..collections..btree..node..marker..KV$GT$15split_leaf_data17h289a6d7e341347bdE
libvulkan_nouveau.so:_ZN5alloc11collections5btree4node171Handle$LT$alloc..collections..btree..node..NodeRef$LT$alloc..collections..btree..node..marker..Mut$C$K$C$V$C$NodeType$GT$$C$alloc..collections..btree..node..marker..KV$GT$15split_leaf_data17hd577fb82d348e1c6E
libvulkan_nouveau.so:_ZN5alloc11collections5btree4node173Handle$LT$alloc..collections..btree..node..NodeRef$LT$alloc..collections..btree..node..marker..Immut$C$K$C$V$C$NodeType$GT$$C$alloc..collections..btree..node..marker..KV$GT$7into_kv17h131f080c60bfb75fE
libvulkan_nouveau.so:_ZN5alloc11collections5btree4node180Handle$LT$alloc..collections..btree..node..NodeRef$LT$BorrowType$C$K$C$V$C$alloc..collections..btree..node..marker..Internal$GT$$C$alloc..collections..btree..node..marker..Edge$GT$7descend17h2a43407fcbe94625E
libvulkan_nouveau.so:_ZN5alloc11collections5btree4node180Handle$LT$alloc..collections..btree..node..NodeRef$LT$BorrowType$C$K$C$V$C$alloc..collections..btree..node..marker..Internal$GT$$C$alloc..collections..btree..node..marker..Edge$GT$7descend17h670a2a7dface60b9E
libvulkan_nouveau.so:_ZN5alloc11collections5btree4node208Handle$LT$alloc..collections..btree..node..NodeRef$LT$alloc..collections..btree..node..marker..Mut$C$K$C$V$C$alloc..collections..btree..node..marker..Leaf$GT$$C$alloc..collections..btree..node..marker..KV$GT$5split17hd8d7f41e52a113f8E
libvulkan_nouveau.so:_ZN5alloc11collections5btree4node210Handle$LT$alloc..collections..btree..node..NodeRef$LT$alloc..collections..btree..node..marker..Mut$C$K$C$V$C$alloc..collections..btree..node..marker..Leaf$GT$$C$alloc..collections..btree..node..marker..Edge$GT$10insert_fit17hba15309f34f2a45dE
libvulkan_nouveau.so:_ZN5alloc11collections5btree4node210Handle$LT$alloc..collections..btree..node..NodeRef$LT$alloc..collections..btree..node..marker..Mut$C$K$C$V$C$alloc..collections..btree..node..marker..Leaf$GT$$C$alloc..collections..btree..node..marker..Edge$GT$16insert_recursing17h2a0b43e9410c5eeaE
libvulkan_nouveau.so:_ZN5alloc11collections5btree4node210Handle$LT$alloc..collections..btree..node..NodeRef$LT$alloc..collections..btree..node..marker..Mut$C$K$C$V$C$alloc..collections..btree..node..marker..Leaf$GT$$C$alloc..collections..btree..node..marker..Edge$GT$6insert17h5161b1cd40af576fE
libvulkan_nouveau.so:_ZN5alloc11collections5btree4node212Handle$LT$alloc..collections..btree..node..NodeRef$LT$alloc..collections..btree..node..marker..Mut$C$K$C$V$C$alloc..collections..btree..node..marker..Internal$GT$$C$alloc..collections..btree..node..marker..KV$GT$5split17h9880bb738b32d35eE
libvulkan_nouveau.so:_ZN5alloc11collections5btree4node214Handle$LT$alloc..collections..btree..node..NodeRef$LT$alloc..collections..btree..node..marker..Mut$C$K$C$V$C$alloc..collections..btree..node..marker..Internal$GT$$C$alloc..collections..btree..node..marker..Edge$GT$10insert_fit17h4c4afb0a78383b43E
libvulkan_nouveau.so:_ZN5alloc11collections5btree4node214Handle$LT$alloc..collections..btree..node..NodeRef$LT$alloc..collections..btree..node..marker..Mut$C$K$C$V$C$alloc..collections..btree..node..marker..Internal$GT$$C$alloc..collections..btree..node..marker..Edge$GT$19correct_parent_link17hd1608f5ce04caa30E
libvulkan_nouveau.so:_ZN5alloc11collections5btree4node214Handle$LT$alloc..collections..btree..node..NodeRef$LT$alloc..collections..btree..node..marker..Mut$C$K$C$V$C$alloc..collections..btree..node..marker..Internal$GT$$C$alloc..collections..btree..node..marker..Edge$GT$6insert17h30517b336ab6fd00E
libvulkan_nouveau.so:_ZN5alloc11collections5btree4node21LeafNode$LT$K$C$V$GT$3new17h46fe725348fa81deE
libvulkan_nouveau.so:_ZN5alloc11collections5btree4node25InternalNode$LT$K$C$V$GT$3new17h6307f55888f34643E
libvulkan_nouveau.so:_ZN5alloc11collections5btree4node76NodeRef$LT$alloc..collections..btree..node..marker..Immut$C$K$C$V$C$Type$GT$4keys17h34c960e626f8d10eE
libvulkan_nouveau.so:_ZN5alloc11collections5btree6search142_$LT$impl$u20$alloc..collections..btree..node..NodeRef$LT$BorrowType$C$K$C$V$C$alloc..collections..btree..node..marker..LeafOrInternal$GT$$GT$11search_tree17h201ae5ce20ae804aE
libvulkan_nouveau.so:_ZN5alloc11collections5btree6search142_$LT$impl$u20$alloc..collections..btree..node..NodeRef$LT$BorrowType$C$K$C$V$C$alloc..collections..btree..node..marker..LeafOrInternal$GT$$GT$11search_tree17h372ebd93edc5b199E
libvulkan_nouveau.so:_ZN5alloc11collections5btree6search91_$LT$impl$u20$alloc..collections..btree..node..NodeRef$LT$BorrowType$C$K$C$V$C$Type$GT$$GT$14find_key_index17h135698896461e31fE
libvulkan_nouveau.so:_ZN5alloc11collections5btree6search91_$LT$impl$u20$alloc..collections..btree..node..NodeRef$LT$BorrowType$C$K$C$V$C$Type$GT$$GT$14find_key_index17h4f270fa356d582a2E
libvulkan_nouveau.so:_ZN5alloc2rc32rc_inner_layout_for_value_layout17hf5daaf02c6ad3914E
libvulkan_nouveau.so:_ZN5alloc3ffi5c_str100_$LT$impl$u20$core..default..Default$u20$for$u20$alloc..boxed..Box$LT$core..ffi..c_str..CStr$GT$$GT$7default17hd1a0b49af8cfe64cE
libvulkan_nouveau.so:_ZN5alloc3ffi5c_str131_$LT$impl$u20$core..convert..From$LT$$RF$core..ffi..c_str..CStr$GT$$u20$for$u20$alloc..boxed..Box$LT$core..ffi..c_str..CStr$GT$$GT$4from17h1a02952101c11031E
libvulkan_nouveau.so:_ZN5alloc3ffi5c_str139_$LT$impl$u20$core..convert..From$LT$$RF$mut$u20$core..ffi..c_str..CStr$GT$$u20$for$u20$alloc..boxed..Box$LT$core..ffi..c_str..CStr$GT$$GT$4from17h772bfba8170a7dfaE
libvulkan_nouveau.so:_ZN5alloc3ffi5c_str19FromVecWithNulError8as_bytes17h0aefa9a051a572c9E
libvulkan_nouveau.so:_ZN5alloc3ffi5c_str40_$LT$impl$u20$core..ffi..c_str..CStr$GT$13into_c_string17h6a8f9daa7eff40d7E
libvulkan_nouveau.so:_ZN5alloc3ffi5c_str40_$LT$impl$u20$core..ffi..c_str..CStr$GT$15to_string_lossy17hb19cbbeb9691f8d5E
libvulkan_nouveau.so:_ZN5alloc3ffi5c_str75_$LT$impl$u20$alloc..borrow..ToOwned$u20$for$u20$core..ffi..c_str..CStr$GT$10clone_into17he8375bd2eaa2e497E
libvulkan_nouveau.so:_ZN5alloc3ffi5c_str75_$LT$impl$u20$alloc..borrow..ToOwned$u20$for$u20$core..ffi..c_str..CStr$GT$8to_owned17h9dc2df3906a03032E
libvulkan_nouveau.so:_ZN5alloc3ffi5c_str7CString10into_bytes17hcdc8b5691641ea56E
libvulkan_nouveau.so:_ZN5alloc3ffi5c_str7CString11into_string17h4f7154c290361035E
libvulkan_nouveau.so:_ZN5alloc3ffi5c_str7CString16into_boxed_c_str17h43c93ca578d332c2E
libvulkan_nouveau.so:_ZN5alloc3ffi5c_str7CString17from_vec_with_nul17h0621d74d9aeb1150E
libvulkan_nouveau.so:_ZN5alloc3ffi5c_str7CString18from_vec_unchecked17h061435ddb13c70a8E
libvulkan_nouveau.so:_ZN5alloc3ffi5c_str7CString19_from_vec_unchecked17hfaf9d2e29d6e2479E
libvulkan_nouveau.so:_ZN5alloc3ffi5c_str7CString19into_bytes_with_nul17hc2d38d98fa932165E
libvulkan_nouveau.so:_ZN5alloc3ffi5c_str7CString27from_vec_with_nul_unchecked17h393834c1787e39c3E
libvulkan_nouveau.so:_ZN5alloc3ffi5c_str7CString8from_raw17hac58bb0e81b5ae78E
libvulkan_nouveau.so:_ZN5alloc3fmt6format12format_inner17hbefb235c4a436b28E
libvulkan_nouveau.so:_ZN5alloc3str21_$LT$impl$u20$str$GT$12to_lowercase17h75e2393ea5fc5f5fE
libvulkan_nouveau.so:_ZN5alloc3str21_$LT$impl$u20$str$GT$12to_uppercase17ha579bda1b2cc7ab7E
libvulkan_nouveau.so:_ZN5alloc3vec12Vec$LT$T$GT$3new17h28a5c391f6c172a5E
libvulkan_nouveau.so:_ZN5alloc3vec12Vec$LT$T$GT$3new17h51fdf2cfc6a6c813E
libvulkan_nouveau.so:_ZN5alloc3vec16Vec$LT$T$C$A$GT$11extend_with17ha33ab4465dd5ed4eE
libvulkan_nouveau.so:_ZN5alloc3vec16Vec$LT$T$C$A$GT$11swap_remove13assert_failed17h10ef4cba2a9277baE
libvulkan_nouveau.so:_ZN5alloc3vec16Vec$LT$T$C$A$GT$12as_mut_slice17h241a06fd676dc9aeE
libvulkan_nouveau.so:_ZN5alloc3vec16Vec$LT$T$C$A$GT$15append_elements17ha788e929fca9ebf4E
libvulkan_nouveau.so:_ZN5alloc3vec16Vec$LT$T$C$A$GT$17extend_from_slice17h99f44ff02756ad84E
libvulkan_nouveau.so:_ZN5alloc3vec16Vec$LT$T$C$A$GT$3len17h17fb6469835af113E
libvulkan_nouveau.so:_ZN5alloc3vec16Vec$LT$T$C$A$GT$6insert13assert_failed17ha977e258af55a09aE
libvulkan_nouveau.so:_ZN5alloc3vec16Vec$LT$T$C$A$GT$6remove13assert_failed17h2473c735e97db423E
libvulkan_nouveau.so:_ZN5alloc3vec16Vec$LT$T$C$A$GT$6resize17hcd8a900afdfef1acE
libvulkan_nouveau.so:_ZN5alloc3vec16Vec$LT$T$C$A$GT$7reserve17hc9e23998b66b5787E
libvulkan_nouveau.so:_ZN5alloc3vec16Vec$LT$T$C$A$GT$7reserve17hdc411c5b653e4347E
libvulkan_nouveau.so:_ZN5alloc3vec16Vec$LT$T$C$A$GT$8as_slice17hcb2647c38380143fE
libvulkan_nouveau.so:_ZN5alloc3vec16Vec$LT$T$C$A$GT$8truncate17h6250924b99047722E
libvulkan_nouveau.so:_ZN5alloc3vec16Vec$LT$T$C$A$GT$9split_off13assert_failed17h0206f556c2b8ce7cE
libvulkan_nouveau.so:_ZN5alloc4sync16Arc$LT$T$C$A$GT$9drop_slow17h139dc584534590a4E
libvulkan_nouveau.so:_ZN5alloc4sync16Arc$LT$T$C$A$GT$9drop_slow17h2ceb5b32a3089548E
libvulkan_nouveau.so:_ZN5alloc4sync16Arc$LT$T$C$A$GT$9drop_slow17h2dd8781cf89b3fdfE
libvulkan_nouveau.so:_ZN5alloc4sync16Arc$LT$T$C$A$GT$9drop_slow17h349a54716a7bf657E
libvulkan_nouveau.so:_ZN5alloc4sync16Arc$LT$T$C$A$GT$9drop_slow17h7e5c822f4b5ba21cE
libvulkan_nouveau.so:_ZN5alloc4sync16Arc$LT$T$C$A$GT$9drop_slow17hbeedce42072f8c21E
libvulkan_nouveau.so:_ZN5alloc4sync16Arc$LT$T$C$A$GT$9drop_slow17hcad8e9afb9ef50c5E
libvulkan_nouveau.so:_ZN5alloc4sync32arcinner_layout_for_value_layout17h7a8bda2a23ad90acE
libvulkan_nouveau.so:_ZN5alloc5alloc18handle_alloc_error17hc87b1914888e6cf2E
libvulkan_nouveau.so:_ZN5alloc5alloc18handle_alloc_error8ct_error17hbeae75ee17fb8f54E
libvulkan_nouveau.so:_ZN5alloc5boxed16Box$LT$T$C$A$GT$13new_uninit_in17h7c293077d08ecb03E
libvulkan_nouveau.so:_ZN5alloc5boxed16Box$LT$T$C$A$GT$13new_uninit_in17h922fd3836d7e4d17E
libvulkan_nouveau.so:_ZN5alloc5boxed16Box$LT$T$C$A$GT$17try_new_uninit_in17h6650c7b9e9e7782fE
libvulkan_nouveau.so:_ZN5alloc5boxed16Box$LT$T$C$A$GT$17try_new_uninit_in17hd622478cd8f74547E
libvulkan_nouveau.so:_ZN5alloc5boxed7convert116_$LT$impl$u20$core..convert..From$LT$$RF$str$GT$$u20$for$u20$alloc..boxed..Box$LT$dyn$u20$core..error..Error$GT$$GT$4from17hfe7ec8cf309e5561E
libvulkan_nouveau.so:_ZN5alloc5boxed7convert130_$LT$impl$u20$core..convert..From$LT$alloc..string..String$GT$$u20$for$u20$alloc..boxed..Box$LT$dyn$u20$core..error..Error$GT$$GT$4from17hf254a8556edb5b25E
libvulkan_nouveau.so:_ZN5alloc5boxed7convert138_$LT$impl$u20$core..convert..From$LT$alloc..borrow..Cow$LT$str$GT$$GT$$u20$for$u20$alloc..boxed..Box$LT$dyn$u20$core..error..Error$GT$$GT$4from17h4e18633ded05b201E
libvulkan_nouveau.so:_ZN5alloc5boxed7convert184_$LT$impl$u20$core..convert..From$LT$alloc..borrow..Cow$LT$str$GT$$GT$$u20$for$u20$alloc..boxed..Box$LT$dyn$u20$core..error..Error$u2b$core..marker..Sync$u2b$core..marker..Send$GT$$GT$4from17h0d28ef5b8588ffdfE
libvulkan_nouveau.so:_ZN5alloc6borrow12Cow$LT$B$GT$10into_owned17hec6f651271a33d7bE
libvulkan_nouveau.so:_ZN5alloc6string107_$LT$impl$u20$core..convert..From$LT$alloc..string..String$GT$$u20$for$u20$alloc..boxed..Box$LT$str$GT$$GT$4from17h3d69bcf2bcd51e05E
libvulkan_nouveau.so:_ZN5alloc6string13FromUtf8Error15into_utf8_lossy17h9931e604588d42e8E
libvulkan_nouveau.so:_ZN5alloc6string13FromUtf8Error8as_bytes17h6446d70271adb0dcE
libvulkan_nouveau.so:_ZN5alloc6string5Drain6as_str17hd05e9f327a3c4dc2E
libvulkan_nouveau.so:_ZN5alloc6string6String10from_utf1617h401fd43f97849588E
libvulkan_nouveau.so:_ZN5alloc6string6String11try_reserve17h3f000855a9e6272fE
libvulkan_nouveau.so:_ZN5alloc6string6String12from_utf16be17had26cc5b2b0ebbc7E
libvulkan_nouveau.so:_ZN5alloc6string6String12from_utf16le17h2a537f665eb2669bE
libvulkan_nouveau.so:_ZN5alloc6string6String12insert_bytes17h44f319acbfadc1d7E
libvulkan_nouveau.so:_ZN5alloc6string6String14into_raw_parts17hcdb6b5cafc333719E
libvulkan_nouveau.so:_ZN5alloc6string6String15from_utf8_lossy17h8927d6c41a70ccafE
libvulkan_nouveau.so:_ZN5alloc6string6String17try_reserve_exact17h816286aaafbadc89E
libvulkan_nouveau.so:_ZN5alloc6string6String18from_utf16be_lossy17h4bf1a33c7064b111E
libvulkan_nouveau.so:_ZN5alloc6string6String18from_utf16le_lossy17ha0ecb12f9c70afe6E
libvulkan_nouveau.so:_ZN5alloc6string6String21from_utf8_lossy_owned17hdba3d11b952de272E
libvulkan_nouveau.so:_ZN5alloc7raw_vec11finish_grow17h17cbab708978f3edE
libvulkan_nouveau.so:_ZN5alloc7raw_vec12handle_error17h9950ea1b7b409028E
libvulkan_nouveau.so:_ZN5alloc7raw_vec19RawVec$LT$T$C$A$GT$8grow_one17h011ee172d873865dE
libvulkan_nouveau.so:_ZN5alloc7raw_vec19RawVec$LT$T$C$A$GT$8grow_one17h04eebcd08155a221E
libvulkan_nouveau.so:_ZN5alloc7raw_vec19RawVec$LT$T$C$A$GT$8grow_one17h127727f0d6fa9d92E
libvulkan_nouveau.so:_ZN5alloc7raw_vec19RawVec$LT$T$C$A$GT$8grow_one17h1eac28ce7f0a379cE
libvulkan_nouveau.so:_ZN5alloc7raw_vec19RawVec$LT$T$C$A$GT$8grow_one17h26ac6f6d2a2dfd24E
libvulkan_nouveau.so:_ZN5alloc7raw_vec19RawVec$LT$T$C$A$GT$8grow_one17h2e7b15413b635424E
libvulkan_nouveau.so:_ZN5alloc7raw_vec19RawVec$LT$T$C$A$GT$8grow_one17h3376644f06f4799bE
libvulkan_nouveau.so:_ZN5alloc7raw_vec19RawVec$LT$T$C$A$GT$8grow_one17h41069455fd3b1fbeE
libvulkan_nouveau.so:_ZN5alloc7raw_vec19RawVec$LT$T$C$A$GT$8grow_one17h435e979a042dc7a6E
libvulkan_nouveau.so:_ZN5alloc7raw_vec19RawVec$LT$T$C$A$GT$8grow_one17h51f33b60dac313ceE
libvulkan_nouveau.so:_ZN5alloc7raw_vec19RawVec$LT$T$C$A$GT$8grow_one17h5d5b8f67da37b6d6E
libvulkan_nouveau.so:_ZN5alloc7raw_vec19RawVec$LT$T$C$A$GT$8grow_one17h6e907f72378c328aE
libvulkan_nouveau.so:_ZN5alloc7raw_vec19RawVec$LT$T$C$A$GT$8grow_one17h77461c492d71291aE
libvulkan_nouveau.so:_ZN5alloc7raw_vec19RawVec$LT$T$C$A$GT$8grow_one17h777472bd77949344E
libvulkan_nouveau.so:_ZN5alloc7raw_vec19RawVec$LT$T$C$A$GT$8grow_one17h88c827b391748251E
libvulkan_nouveau.so:_ZN5alloc7raw_vec19RawVec$LT$T$C$A$GT$8grow_one17h94e1a81e1c451a24E
libvulkan_nouveau.so:_ZN5alloc7raw_vec19RawVec$LT$T$C$A$GT$8grow_one17h959ffe0978658fc8E
libvulkan_nouveau.so:_ZN5alloc7raw_vec19RawVec$LT$T$C$A$GT$8grow_one17ha4d017db0fca6960E
libvulkan_nouveau.so:_ZN5alloc7raw_vec19RawVec$LT$T$C$A$GT$8grow_one17ha51d17becebe1757E
libvulkan_nouveau.so:_ZN5alloc7raw_vec19RawVec$LT$T$C$A$GT$8grow_one17hacef047764953defE
libvulkan_nouveau.so:_ZN5alloc7raw_vec19RawVec$LT$T$C$A$GT$8grow_one17hb3785fa86fecb880E
libvulkan_nouveau.so:_ZN5alloc7raw_vec19RawVec$LT$T$C$A$GT$8grow_one17hb46a44abfb0b7294E
libvulkan_nouveau.so:_ZN5alloc7raw_vec19RawVec$LT$T$C$A$GT$8grow_one17hc2d3d37fd8294e75E
libvulkan_nouveau.so:_ZN5alloc7raw_vec19RawVec$LT$T$C$A$GT$8grow_one17hc33ef9fe8d476393E
libvulkan_nouveau.so:_ZN5alloc7raw_vec19RawVec$LT$T$C$A$GT$8grow_one17hc8d147d53b167a6bE
libvulkan_nouveau.so:_ZN5alloc7raw_vec19RawVec$LT$T$C$A$GT$8grow_one17hcda1cc9b9f84a92dE
libvulkan_nouveau.so:_ZN5alloc7raw_vec19RawVec$LT$T$C$A$GT$8grow_one17hcfea8635f1a5075bE
libvulkan_nouveau.so:_ZN5alloc7raw_vec19RawVec$LT$T$C$A$GT$8grow_one17hd0413ac8f3f01346E
libvulkan_nouveau.so:_ZN5alloc7raw_vec19RawVec$LT$T$C$A$GT$8grow_one17hd7b375c8da508840E
libvulkan_nouveau.so:_ZN5alloc7raw_vec19RawVec$LT$T$C$A$GT$8grow_one17hdcaee862158c39a9E
libvulkan_nouveau.so:_ZN5alloc7raw_vec19RawVec$LT$T$C$A$GT$8grow_one17heb6fa6857a89f601E
libvulkan_nouveau.so:_ZN5alloc7raw_vec19RawVec$LT$T$C$A$GT$8grow_one17hed428c5a9a240d3cE
libvulkan_nouveau.so:_ZN5alloc7raw_vec19RawVec$LT$T$C$A$GT$8grow_one17hf33d40da1605f594E
libvulkan_nouveau.so:_ZN5alloc7raw_vec20RawVecInner$LT$A$GT$10deallocate17h886d1abd5bb041afE
libvulkan_nouveau.so:_ZN5alloc7raw_vec20RawVecInner$LT$A$GT$14grow_amortized17h81115ed49bc66aabE
libvulkan_nouveau.so:_ZN5alloc7raw_vec20RawVecInner$LT$A$GT$15try_allocate_in17h19d8399c9a204c97E
libvulkan_nouveau.so:_ZN5alloc7raw_vec20RawVecInner$LT$A$GT$16with_capacity_in17h2755991622b7e323E
libvulkan_nouveau.so:_ZN5alloc7raw_vec20RawVecInner$LT$A$GT$7reserve21do_reserve_and_handle17h0d12e72defc6a6efE
libvulkan_nouveau.so:_ZN5gimli4arch3Arm13register_name17h0713688b26e6d109E
libvulkan_nouveau.so:_ZN5gimli4arch3Arm16name_to_register17h2eca375b8442dce8E
libvulkan_nouveau.so:_ZN5gimli4arch3X8616name_to_register17ha3811921240200f5E
libvulkan_nouveau.so:_ZN5gimli4arch4MIPS13register_name17hffbe19e01b0cfb31E
libvulkan_nouveau.so:_ZN5gimli4arch4MIPS16name_to_register17h33f1a21acc7b1a36E
libvulkan_nouveau.so:_ZN5gimli4arch5RiscV13register_name17hbec99058d5febd8aE
libvulkan_nouveau.so:_ZN5gimli4arch5RiscV16name_to_register17he7a300b278291e3bE
libvulkan_nouveau.so:_ZN5gimli4arch6X86_6413register_name17h11ca526824c44ca7E
libvulkan_nouveau.so:_ZN5gimli4arch6X86_6416name_to_register17h1cade1fe24b475b3E
libvulkan_nouveau.so:_ZN5gimli4arch7AArch6413register_name17h31359e5b6b7fa0acE
libvulkan_nouveau.so:_ZN5gimli4arch7AArch6416name_to_register17h1d7e1c2b2d28f194E
libvulkan_nouveau.so:_ZN5gimli4arch9LoongArch13register_name17ha3f7b7cee0022153E
libvulkan_nouveau.so:_ZN5gimli4arch9LoongArch16name_to_register17hcf32f7ad1ff0f324E
libvulkan_nouveau.so:_ZN5gimli4arch9PowerPc6413register_name17h486bda2fb5bfe4a4E
libvulkan_nouveau.so:_ZN5gimli4arch9PowerPc6416name_to_register17he386815615d38755E
libvulkan_nouveau.so:_ZN5gimli4read5Error11description17hcdaadc2f94755454E
libvulkan_nouveau.so:_ZN5gimli4read5value5Value11reinterpret17h5091d64d623377f6E
libvulkan_nouveau.so:_ZN5gimli4read5value5Value2or17ha4aff89f61cb2919E
libvulkan_nouveau.so:_ZN5gimli4read5value5Value3and17h1e6dbdd9cd964d0fE
libvulkan_nouveau.so:_ZN5gimli4read5value5Value3div17h95fd5da7e7ba43afE
libvulkan_nouveau.so:_ZN5gimli4read5value5Value3not17hbc87d392b0c6ee44E
libvulkan_nouveau.so:_ZN5gimli4read5value5Value3rem17hab6c01ddd2298f34E
libvulkan_nouveau.so:_ZN5gimli4read5value5Value3shl17h8c97e256fd2ef9c0E
libvulkan_nouveau.so:_ZN5gimli4read5value5Value3shr17h1f5dec1abab20ef0E
libvulkan_nouveau.so:_ZN5gimli4read5value5Value3xor17hea249e1d90b0ed2fE
libvulkan_nouveau.so:_ZN5gimli4read5value5Value4shra17h278975a69de9d61eE
libvulkan_nouveau.so:_ZN5gimli4read5value5Value7convert17hfaf358951d099939E
libvulkan_nouveau.so:_ZN5gimli4read5value9ValueType8bit_size17h9ba6b6217acd2355E
libvulkan_nouveau.so:_ZN5gimli4read6abbrev10Attributes4push17h35dba9f6b1387065E
libvulkan_nouveau.so:_ZN5gimli4read6abbrev12Abbreviation3new17hcc867be6aab2437bE
libvulkan_nouveau.so:_ZN5gimli4read6abbrev13Abbreviations6insert17h41c07eba2ab76647E
libvulkan_nouveau.so:_ZN5gimli9constants4DwAt13static_string17headda0c47fe0a74aE
libvulkan_nouveau.so:_ZN5gimli9constants4DwOp13static_string17hc5bfc1bbb209488cE
libvulkan_nouveau.so:_ZN5gimli9constants5DwTag13static_string17h7e0ec8f6d43e16b3E
libvulkan_nouveau.so:_ZN5gimli9constants6DwForm13static_string17h96e3fb9a548be90fE
libvulkan_nouveau.so:_ZN5gimli9constants6DwLang13static_string17h175bc9eaa0d61cbcE
libvulkan_nouveau.so:_ZN60_$LT$$RF$std..pipe..PipeWriter$u20$as$u20$std..io..Write$GT$14write_vectored17h56cb4dda2be1222eE
libvulkan_nouveau.so:_ZN60_$LT$$RF$std..pipe..PipeWriter$u20$as$u20$std..io..Write$GT$5write17hce73b6d2655367d6E
libvulkan_nouveau.so:_ZN60_$LT$alloc..string..String$u20$as$u20$core..clone..Clone$GT$10clone_from17ha2d8c69eb515f118E
libvulkan_nouveau.so:_ZN60_$LT$alloc..string..String$u20$as$u20$core..clone..Clone$GT$5clone17h0b202ed9295b36bdE
libvulkan_nouveau.so:_ZN60_$LT$core..cell..BorrowError$u20$as$u20$core..fmt..Debug$GT$3fmt17h5fb81457aa6ae38eE
libvulkan_nouveau.so:_ZN60_$LT$core..str..lossy..Debug$u20$as$u20$core..fmt..Debug$GT$3fmt17h540a18ff969f929cE
libvulkan_nouveau.so:_ZN60_$LT$core..task..wake..Waker$u20$as$u20$core..fmt..Debug$GT$3fmt17h13348bde2d3270f6E
libvulkan_nouveau.so:_ZN60_$LT$std..ffi..os_str..OsStr$u20$as$u20$core..fmt..Debug$GT$3fmt17h50eb74a4b6bfd426E
libvulkan_nouveau.so:_ZN60_$LT$std..fs..File$u20$as$u20$std..os..unix..fs..FileExt$GT$16read_vectored_at17h5a97306d451d7810E
libvulkan_nouveau.so:_ZN60_$LT$std..fs..File$u20$as$u20$std..os..unix..fs..FileExt$GT$17write_vectored_at17h05ca8391384b5da1E
libvulkan_nouveau.so:_ZN60_$LT$std..fs..File$u20$as$u20$std..os..unix..fs..FileExt$GT$7read_at17h9c8225ce3e164ab3E
libvulkan_nouveau.so:_ZN60_$LT$std..fs..File$u20$as$u20$std..os..unix..fs..FileExt$GT$8write_at17h076d94b95faf5da3E
libvulkan_nouveau.so:_ZN60_$LT$std..io..error..Error$u20$as$u20$core..error..Error$GT$11description17hee08e0ad62423de2E
libvulkan_nouveau.so:_ZN60_$LT$std..io..error..Error$u20$as$u20$core..error..Error$GT$5cause17h23a04ecb602eb75dE
libvulkan_nouveau.so:_ZN60_$LT$std..io..error..Error$u20$as$u20$core..error..Error$GT$6source17hea4ce57227f2b279E
libvulkan_nouveau.so:_ZN60_$LT$std..io..error..Error$u20$as$u20$core..fmt..Display$GT$3fmt17h2118e071882953efE
libvulkan_nouveau.so:_ZN60_$LT$std..io..stdio..StderrRaw$u20$as$u20$std..io..Write$GT$14write_vectored17he9dbc18381a62eabE
libvulkan_nouveau.so:_ZN60_$LT$std..io..stdio..StderrRaw$u20$as$u20$std..io..Write$GT$18write_all_vectored17hdf7da690c7b88406E
libvulkan_nouveau.so:_ZN60_$LT$std..io..stdio..StderrRaw$u20$as$u20$std..io..Write$GT$5flush17h4830fc5e9e3c5d35E
libvulkan_nouveau.so:_ZN60_$LT$std..io..stdio..StderrRaw$u20$as$u20$std..io..Write$GT$5write17hcc9c9dd35cf6f2dfE
libvulkan_nouveau.so:_ZN60_$LT$std..io..stdio..StderrRaw$u20$as$u20$std..io..Write$GT$9write_all17he77a874838b21f4aE
libvulkan_nouveau.so:_ZN60_$LT$std..io..stdio..StderrRaw$u20$as$u20$std..io..Write$GT$9write_fmt17hacddbfdd547826abE
libvulkan_nouveau.so:_ZN60_$LT$std..io..stdio..StdoutRaw$u20$as$u20$std..io..Write$GT$14write_vectored17h8811f81de2021229E
libvulkan_nouveau.so:_ZN60_$LT$std..io..stdio..StdoutRaw$u20$as$u20$std..io..Write$GT$18write_all_vectored17hf34b54e537ca7173E
libvulkan_nouveau.so:_ZN60_$LT$std..io..stdio..StdoutRaw$u20$as$u20$std..io..Write$GT$5flush17h804847b1aa6d4414E
libvulkan_nouveau.so:_ZN60_$LT$std..io..stdio..StdoutRaw$u20$as$u20$std..io..Write$GT$5write17hfdca2f8123d09b69E
libvulkan_nouveau.so:_ZN60_$LT$std..io..stdio..StdoutRaw$u20$as$u20$std..io..Write$GT$9write_all17ha6446709e8e7295aE
libvulkan_nouveau.so:_ZN60_$LT$std..io..stdio..StdoutRaw$u20$as$u20$std..io..Write$GT$9write_fmt17h9b2c36cb7a21ccf6E
libvulkan_nouveau.so:_ZN60_$LT$std..time..Instant$u20$as$u20$core..ops..arith..Sub$GT$3sub17hf7114aee50633a1dE
libvulkan_nouveau.so:_ZN60_$LT$str$u20$as$u20$std..net..socket_addr..ToSocketAddrs$GT$15to_socket_addrs17hf6d1f461b2bb6faaE
libvulkan_nouveau.so:_ZN61_$LT$$RF$std..io..stdio..Stderr$u20$as$u20$std..io..Write$GT$14write_vectored17h135035f8982802c9E
libvulkan_nouveau.so:_ZN61_$LT$$RF$std..io..stdio..Stderr$u20$as$u20$std..io..Write$GT$18write_all_vectored17hb5ddefaf1aa23497E
libvulkan_nouveau.so:_ZN61_$LT$$RF$std..io..stdio..Stderr$u20$as$u20$std..io..Write$GT$5flush17hcd3e1c0e88a10fffE
libvulkan_nouveau.so:_ZN61_$LT$$RF$std..io..stdio..Stderr$u20$as$u20$std..io..Write$GT$5write17hbdb57b6eef6b4921E
libvulkan_nouveau.so:_ZN61_$LT$$RF$std..io..stdio..Stderr$u20$as$u20$std..io..Write$GT$9write_all17h9cf9800aa9b547c8E
libvulkan_nouveau.so:_ZN61_$LT$$RF$std..io..stdio..Stderr$u20$as$u20$std..io..Write$GT$9write_fmt17h08f563aa0c0b8e09E
libvulkan_nouveau.so:_ZN61_$LT$$RF$std..io..stdio..Stdout$u20$as$u20$std..io..Write$GT$14write_vectored17h840d999190dbc90cE
libvulkan_nouveau.so:_ZN61_$LT$$RF$std..io..stdio..Stdout$u20$as$u20$std..io..Write$GT$18write_all_vectored17hc1cb2525066e276cE
libvulkan_nouveau.so:_ZN61_$LT$$RF$std..io..stdio..Stdout$u20$as$u20$std..io..Write$GT$5flush17h5ba6d1c503d31e6dE
libvulkan_nouveau.so:_ZN61_$LT$$RF$std..io..stdio..Stdout$u20$as$u20$std..io..Write$GT$5write17hdbaa1150e5f9c731E
libvulkan_nouveau.so:_ZN61_$LT$$RF$std..io..stdio..Stdout$u20$as$u20$std..io..Write$GT$9write_all17h9d376166f7018201E
libvulkan_nouveau.so:_ZN61_$LT$$RF$std..io..stdio..Stdout$u20$as$u20$std..io..Write$GT$9write_fmt17h97ba21a69feeab99E
libvulkan_nouveau.so:_ZN61_$LT$gimli..constants..DwAt$u20$as$u20$core..fmt..Display$GT$3fmt17hc11860cd495af849E
libvulkan_nouveau.so:_ZN61_$LT$gimli..constants..DwCc$u20$as$u20$core..fmt..Display$GT$3fmt17hff0a28054bd8fbc3E
libvulkan_nouveau.so:_ZN61_$LT$gimli..constants..DwDs$u20$as$u20$core..fmt..Display$GT$3fmt17hba605cc79d0aa881E
libvulkan_nouveau.so:_ZN61_$LT$gimli..constants..DwId$u20$as$u20$core..fmt..Display$GT$3fmt17h4be6a5f17ef73a21E
libvulkan_nouveau.so:_ZN61_$LT$gimli..constants..DwOp$u20$as$u20$core..fmt..Display$GT$3fmt17he1d191f89a0d0702E
libvulkan_nouveau.so:_ZN61_$LT$gimli..constants..DwUt$u20$as$u20$core..fmt..Display$GT$3fmt17h39cf99158091971eE
libvulkan_nouveau.so:_ZN61_$LT$rustc_demangle..Demangle$u20$as$u20$core..fmt..Debug$GT$3fmt17h074477b91dc95fcdE
libvulkan_nouveau.so:_ZN61_$LT$std..io..stdio..StderrLock$u20$as$u20$std..io..Write$GT$14write_vectored17hdd829521e7f64dc4E
libvulkan_nouveau.so:_ZN61_$LT$std..io..stdio..StderrLock$u20$as$u20$std..io..Write$GT$18write_all_vectored17h080647ba0682487aE
libvulkan_nouveau.so:_ZN61_$LT$std..io..stdio..StderrLock$u20$as$u20$std..io..Write$GT$5flush17h7c75d8d790ec5d95E
libvulkan_nouveau.so:_ZN61_$LT$std..io..stdio..StderrLock$u20$as$u20$std..io..Write$GT$5write17h092b41be617147d7E
libvulkan_nouveau.so:_ZN61_$LT$std..io..stdio..StderrLock$u20$as$u20$std..io..Write$GT$9write_all17h11a948ad59196766E
libvulkan_nouveau.so:_ZN61_$LT$std..io..stdio..StdoutLock$u20$as$u20$std..io..Write$GT$14write_vectored17h6327a96b35ea7676E
libvulkan_nouveau.so:_ZN61_$LT$std..io..stdio..StdoutLock$u20$as$u20$std..io..Write$GT$18write_all_vectored17h1bb0142703a391cdE
libvulkan_nouveau.so:_ZN61_$LT$std..io..stdio..StdoutLock$u20$as$u20$std..io..Write$GT$5flush17ha95fb60536404465E
libvulkan_nouveau.so:_ZN61_$LT$std..io..stdio..StdoutLock$u20$as$u20$std..io..Write$GT$5write17hee4cb93fe703c165E
libvulkan_nouveau.so:_ZN61_$LT$std..io..stdio..StdoutLock$u20$as$u20$std..io..Write$GT$9write_all17hcc7f6cd01d9c194dE
libvulkan_nouveau.so:_ZN61_$LT$std..net..tcp..TcpStream$u20$as$u20$core..fmt..Debug$GT$3fmt17h9f0488ba8dba5234E
libvulkan_nouveau.so:_ZN61_$LT$std..net..udp..UdpSocket$u20$as$u20$core..fmt..Debug$GT$3fmt17h99c6f0fd092cf330E
libvulkan_nouveau.so:_ZN61_$LT$std..process..ChildStdin$u20$as$u20$core..fmt..Debug$GT$3fmt17h57338d9eb61601cdE
libvulkan_nouveau.so:_ZN62_$LT$$RF$std..net..tcp..TcpStream$u20$as$u20$std..io..Read$GT$13read_vectored17h85467e91cf79a2aaE
libvulkan_nouveau.so:_ZN62_$LT$$RF$std..net..tcp..TcpStream$u20$as$u20$std..io..Read$GT$4read17hfe898816d33086feE
libvulkan_nouveau.so:_ZN62_$LT$$RF$std..net..tcp..TcpStream$u20$as$u20$std..io..Read$GT$8read_buf17ha497051d79bb6145E
libvulkan_nouveau.so:_ZN62_$LT$alloc..string..Drain$u20$as$u20$core..ops..drop..Drop$GT$4drop17he228b5c0b0b679a2E
libvulkan_nouveau.so:_ZN62_$LT$core..alloc..AllocError$u20$as$u20$core..fmt..Display$GT$3fmt17h3838eef4b4adf08eE
libvulkan_nouveau.so:_ZN62_$LT$core..cell..BorrowError$u20$as$u20$core..fmt..Display$GT$3fmt17h73ef8d7c8d74a84bE
libvulkan_nouveau.so:_ZN62_$LT$core..char..EscapeDebug$u20$as$u20$core..fmt..Display$GT$3fmt17h078161833b8a0a8dE
libvulkan_nouveau.so:_ZN62_$LT$core..char..ToLowercase$u20$as$u20$core..fmt..Display$GT$3fmt17hbd177ef329b57356E
libvulkan_nouveau.so:_ZN62_$LT$core..char..ToUppercase$u20$as$u20$core..fmt..Display$GT$3fmt17h9132deceea63c356E
libvulkan_nouveau.so:_ZN62_$LT$core..num..bignum..Big32x40$u20$as$u20$core..cmp..Ord$GT$3cmp17h1803962bd9035531E
libvulkan_nouveau.so:_ZN62_$LT$core..task..wake..Context$u20$as$u20$core..fmt..Debug$GT$3fmt17hb7d9bddc3bdb51b8E
libvulkan_nouveau.so:_ZN62_$LT$gimli..constants..DwAte$u20$as$u20$core..fmt..Display$GT$3fmt17hac076622effc941fE
libvulkan_nouveau.so:_ZN62_$LT$gimli..constants..DwCfa$u20$as$u20$core..fmt..Display$GT$3fmt17h14072c749aa34666E
libvulkan_nouveau.so:_ZN62_$LT$gimli..constants..DwDsc$u20$as$u20$core..fmt..Display$GT$3fmt17h3ce47db045833b68E
libvulkan_nouveau.so:_ZN62_$LT$gimli..constants..DwEnd$u20$as$u20$core..fmt..Display$GT$3fmt17h490f02ffc5b0a2e2E
libvulkan_nouveau.so:_ZN62_$LT$gimli..constants..DwIdx$u20$as$u20$core..fmt..Display$GT$3fmt17h315cc410a83292deE
libvulkan_nouveau.so:_ZN62_$LT$gimli..constants..DwInl$u20$as$u20$core..fmt..Display$GT$3fmt17h9730736683536f72E
libvulkan_nouveau.so:_ZN62_$LT$gimli..constants..DwLle$u20$as$u20$core..fmt..Display$GT$3fmt17hf0fd956b7154c9f5E
libvulkan_nouveau.so:_ZN62_$LT$gimli..constants..DwLne$u20$as$u20$core..fmt..Display$GT$3fmt17h76c230d538401fcdE
libvulkan_nouveau.so:_ZN62_$LT$gimli..constants..DwLns$u20$as$u20$core..fmt..Display$GT$3fmt17h51f9c68dc9f88f11E
libvulkan_nouveau.so:_ZN62_$LT$gimli..constants..DwOrd$u20$as$u20$core..fmt..Display$GT$3fmt17hb6a4d5eea5bad5f7E
libvulkan_nouveau.so:_ZN62_$LT$gimli..constants..DwRle$u20$as$u20$core..fmt..Display$GT$3fmt17h68e72eacb40a789cE
libvulkan_nouveau.so:_ZN62_$LT$gimli..constants..DwTag$u20$as$u20$core..fmt..Display$GT$3fmt17hd6e0a51e9e968976E
libvulkan_nouveau.so:_ZN62_$LT$gimli..constants..DwVis$u20$as$u20$core..fmt..Display$GT$3fmt17h91b998ba191aec51E
libvulkan_nouveau.so:_ZN62_$LT$object..read..util..Bytes$u20$as$u20$core..fmt..Debug$GT$3fmt17h5416ceeb76caabceE
libvulkan_nouveau.so:_ZN62_$LT$std..backtrace..Backtrace$u20$as$u20$core..fmt..Debug$GT$3fmt17h41a6a94c2ca564a9E
libvulkan_nouveau.so:_ZN62_$LT$std..ffi..os_str..Display$u20$as$u20$core..fmt..Debug$GT$3fmt17he4daa59524fbb00dE
libvulkan_nouveau.so:_ZN62_$LT$std..io..stdio..StdinLock$u20$as$u20$core..fmt..Debug$GT$3fmt17h27c83f9220f7063eE
libvulkan_nouveau.so:_ZN62_$LT$std..io..stdio..StdinLock$u20$as$u20$std..io..BufRead$GT$10read_until17hd5df3b0080a3494bE
libvulkan_nouveau.so:_ZN62_$LT$std..io..stdio..StdinLock$u20$as$u20$std..io..BufRead$GT$7consume17h81c8ff8cd7a7573aE
libvulkan_nouveau.so:_ZN62_$LT$std..io..stdio..StdinLock$u20$as$u20$std..io..BufRead$GT$8fill_buf17h938f4f11bd68463aE
libvulkan_nouveau.so:_ZN62_$LT$std..io..stdio..StdinLock$u20$as$u20$std..io..BufRead$GT$9read_line17h1e97b076bb6c345aE
libvulkan_nouveau.so:_ZN62_$LT$std..process..ChildStderr$u20$as$u20$core..fmt..Debug$GT$3fmt17h0ee6856f6de99effE
libvulkan_nouveau.so:_ZN62_$LT$std..process..ChildStdout$u20$as$u20$core..fmt..Debug$GT$3fmt17hf28dabe9d5d226f3E
libvulkan_nouveau.so:_ZN63_$LT$$RF$std..net..tcp..TcpStream$u20$as$u20$std..io..Write$GT$14write_vectored17h43ffd784308f93d8E
libvulkan_nouveau.so:_ZN63_$LT$$RF$std..net..tcp..TcpStream$u20$as$u20$std..io..Write$GT$5write17h6a8e98331e46de1aE
libvulkan_nouveau.so:_ZN63_$LT$$RF$std..process..ChildStdin$u20$as$u20$std..io..Write$GT$14write_vectored17hfe9e8bfbb6b6e90bE
libvulkan_nouveau.so:_ZN63_$LT$$RF$std..process..ChildStdin$u20$as$u20$std..io..Write$GT$5write17h6fee1315e673ad99E
libvulkan_nouveau.so:_ZN63_$LT$I$u20$as$u20$core..iter..traits..collect..IntoIterator$GT$9into_iter17h47ad93d59166db9bE
libvulkan_nouveau.so:_ZN63_$LT$I$u20$as$u20$core..iter..traits..collect..IntoIterator$GT$9into_iter17hadfa0121344b991dE
libvulkan_nouveau.so:_ZN63_$LT$I$u20$as$u20$core..iter..traits..collect..IntoIterator$GT$9into_iter17hbcafa71ae03dab66E
libvulkan_nouveau.so:_ZN63_$LT$alloc..ffi..c_str..CString$u20$as$u20$core..fmt..Debug$GT$3fmt17hf030ccc381f6d2b8E
libvulkan_nouveau.so:_ZN63_$LT$core..ascii..EscapeDefault$u20$as$u20$core..fmt..Debug$GT$3fmt17h36706b83dd75abb5E
libvulkan_nouveau.so:_ZN63_$LT$core..cell..BorrowMutError$u20$as$u20$core..fmt..Debug$GT$3fmt17h077cae995df3d869E
libvulkan_nouveau.so:_ZN63_$LT$core..net..ip_addr..IpAddr$u20$as$u20$core..fmt..Debug$GT$3fmt17hfe5b57e76dba2a8aE
libvulkan_nouveau.so:_ZN63_$LT$gimli..constants..DwAddr$u20$as$u20$core..fmt..Display$GT$3fmt17hb5512acf76402792E
libvulkan_nouveau.so:_ZN63_$LT$gimli..constants..DwEhPe$u20$as$u20$core..fmt..Display$GT$3fmt17h4debcbc5234ea9c1E
libvulkan_nouveau.so:_ZN63_$LT$gimli..constants..DwForm$u20$as$u20$core..fmt..Display$GT$3fmt17heeaf3f8eed2bc4deE
libvulkan_nouveau.so:_ZN63_$LT$gimli..constants..DwLang$u20$as$u20$core..fmt..Display$GT$3fmt17h493ef62a43cd9288E
libvulkan_nouveau.so:_ZN63_$LT$gimli..constants..DwLnct$u20$as$u20$core..fmt..Display$GT$3fmt17h094c5f589725d0d7E
libvulkan_nouveau.so:_ZN63_$LT$gimli..constants..DwSect$u20$as$u20$core..fmt..Display$GT$3fmt17hfa292e193a5cefe9E
libvulkan_nouveau.so:_ZN63_$LT$rustc_demangle..Demangle$u20$as$u20$core..fmt..Display$GT$3fmt17ha6b642b5c6afdb73E
libvulkan_nouveau.so:_ZN63_$LT$std..env..JoinPathsError$u20$as$u20$core..fmt..Display$GT$3fmt17hd940f7b27fb52221E
libvulkan_nouveau.so:_ZN63_$LT$std..ffi..os_str..OsString$u20$as$u20$core..fmt..Debug$GT$3fmt17hcf8bc2867c37c452E
libvulkan_nouveau.so:_ZN63_$LT$std..ffi..os_str..OsString$u20$as$u20$core..fmt..Write$GT$9write_str17hdd20b1751ee76900E
libvulkan_nouveau.so:_ZN63_$LT$std..io..stdio..StderrLock$u20$as$u20$core..fmt..Debug$GT$3fmt17hc76ee4e87256ef55E
libvulkan_nouveau.so:_ZN63_$LT$std..io..stdio..StdoutLock$u20$as$u20$core..fmt..Debug$GT$3fmt17h93f60ea92b3f3d5cE
libvulkan_nouveau.so:_ZN63_$LT$std..net..tcp..TcpListener$u20$as$u20$core..fmt..Debug$GT$3fmt17ha40c1ca7ae4abcf2E
libvulkan_nouveau.so:_ZN63_$LT$std..process..ExitStatus$u20$as$u20$core..fmt..Display$GT$3fmt17h9686cac619ce6e74E
libvulkan_nouveau.so:_ZN63_$LT$std..thread..scoped..Scope$u20$as$u20$core..fmt..Debug$GT$3fmt17h6193f808514cba04E
libvulkan_nouveau.so:_ZN64_$LT$core..char..EscapeDefault$u20$as$u20$core..fmt..Display$GT$3fmt17hceb6154fc1714ec3E
libvulkan_nouveau.so:_ZN64_$LT$core..char..EscapeUnicode$u20$as$u20$core..fmt..Display$GT$3fmt17haf730878dc4519eeE
libvulkan_nouveau.so:_ZN64_$LT$core..num..bignum..Big32x40$u20$as$u20$core..fmt..Debug$GT$3fmt17h7debdb48a01b0d5cE
libvulkan_nouveau.so:_ZN64_$LT$core..ops..range..RangeFull$u20$as$u20$core..fmt..Debug$GT$3fmt17h44f0597b2e501bf2E
libvulkan_nouveau.so:_ZN64_$LT$gimli..constants..DwMacro$u20$as$u20$core..fmt..Display$GT$3fmt17h7e512fd47792e1b6E
libvulkan_nouveau.so:_ZN64_$LT$object..read..SymbolIndex$u20$as$u20$core..fmt..Display$GT$3fmt17he9382cd96ef8747aE
libvulkan_nouveau.so:_ZN64_$LT$rustc_demangle..v0..Ident$u20$as$u20$core..fmt..Display$GT$3fmt17hadf498e6f9f6a23bE
libvulkan_nouveau.so:_ZN64_$LT$std..backtrace..Backtrace$u20$as$u20$core..fmt..Display$GT$3fmt17hec59be013ed03360E
libvulkan_nouveau.so:_ZN64_$LT$std..backtrace..BytesOrWide$u20$as$u20$core..fmt..Debug$GT$3fmt17h005b4f3aa6d31c92E
libvulkan_nouveau.so:_ZN64_$LT$std..ffi..os_str..Display$u20$as$u20$core..fmt..Display$GT$3fmt17h33b16f6f71d71e88E
libvulkan_nouveau.so:_ZN64_$LT$std..io..error..ErrorKind$u20$as$u20$core..fmt..Display$GT$3fmt17h8e4d7cfc6e75ac24E
libvulkan_nouveau.so:_ZN64_$LT$std..os..fd..owned..OwnedFd$u20$as$u20$core..fmt..Debug$GT$3fmt17h5ef475fc0246974dE
libvulkan_nouveau.so:_ZN64_$LT$std..panic..PanicHookInfo$u20$as$u20$core..fmt..Display$GT$3fmt17h55460279b5d2a78cE
libvulkan_nouveau.so:_ZN64_$LT$std..sync..barrier..Barrier$u20$as$u20$core..fmt..Debug$GT$3fmt17hcb4a87496f92b432E
libvulkan_nouveau.so:_ZN64_$LT$std..sys_common..wtf8..Wtf8$u20$as$u20$core..fmt..Debug$GT$3fmt17h8699c2f5f5bbac8aE
libvulkan_nouveau.so:_ZN65_$LT$core..ascii..EscapeDefault$u20$as$u20$core..fmt..Display$GT$3fmt17ha41c942a5bd103a0E
libvulkan_nouveau.so:_ZN65_$LT$core..cell..BorrowMutError$u20$as$u20$core..fmt..Display$GT$3fmt17h325be693e6a1f2a6E
libvulkan_nouveau.so:_ZN65_$LT$core..net..ip_addr..IpAddr$u20$as$u20$core..fmt..Display$GT$3fmt17h7287ca89b64babe2E
libvulkan_nouveau.so:_ZN65_$LT$core..net..ip_addr..Ipv4Addr$u20$as$u20$core..fmt..Debug$GT$3fmt17h61dcbecef09c90faE
libvulkan_nouveau.so:_ZN65_$LT$core..net..ip_addr..Ipv6Addr$u20$as$u20$core..fmt..Debug$GT$3fmt17h59dae6dfb71c6527E
libvulkan_nouveau.so:_ZN65_$LT$core..str..iter..EncodeUtf16$u20$as$u20$core..fmt..Debug$GT$3fmt17ha4c6f4f751ea9fd2E
libvulkan_nouveau.so:_ZN65_$LT$core..str..lossy..Utf8Chunks$u20$as$u20$core..fmt..Debug$GT$3fmt17h863f08858a19d7caE
libvulkan_nouveau.so:_ZN65_$LT$core..sync..atomic..AtomicI8$u20$as$u20$core..fmt..Debug$GT$3fmt17h0063c4789938f5f5E
libvulkan_nouveau.so:_ZN65_$LT$core..sync..atomic..AtomicU8$u20$as$u20$core..fmt..Debug$GT$3fmt17ha1c9fa02dc6006d6E
libvulkan_nouveau.so:_ZN65_$LT$core..task..wake..LocalWaker$u20$as$u20$core..fmt..Debug$GT$3fmt17h98354a7f4f22e09fE
libvulkan_nouveau.so:_ZN65_$LT$gimli..constants..DwAccess$u20$as$u20$core..fmt..Display$GT$3fmt17hd29ed7ab02b97299E
libvulkan_nouveau.so:_ZN65_$LT$gimli..constants..DwSectV2$u20$as$u20$core..fmt..Display$GT$3fmt17h68055c2d4730b634E
libvulkan_nouveau.so:_ZN65_$LT$hashbrown..control..tag..Tag$u20$as$u20$core..fmt..Debug$GT$3fmt17h4f662540c7f961bfE
libvulkan_nouveau.so:_ZN65_$LT$object..read..SectionIndex$u20$as$u20$core..fmt..Display$GT$3fmt17hf7453b75e9855638E
libvulkan_nouveau.so:_ZN65_$LT$object..read..util..DebugLen$u20$as$u20$core..fmt..Debug$GT$3fmt17hf8880eaa07d5a31bE
libvulkan_nouveau.so:_ZN65_$LT$std..sync..mpsc..RecvError$u20$as$u20$core..fmt..Display$GT$3fmt17hbe78a26bfcdb238cE
libvulkan_nouveau.so:_ZN65_$LT$std..sys..os_str..bytes..Buf$u20$as$u20$core..fmt..Debug$GT$3fmt17hf859df37733b19eaE
libvulkan_nouveau.so:_ZN65_$LT$std..sys..pal..unix..os..Env$u20$as$u20$core..fmt..Debug$GT$3fmt17hc2221ada03a32ebcE
libvulkan_nouveau.so:_ZN65_$LT$std..thread..PanicGuard$u20$as$u20$core..ops..drop..Drop$GT$4drop17h9ae1b38f79172a6fE
libvulkan_nouveau.so:_ZN65_$LT$std..time..SystemTimeError$u20$as$u20$core..fmt..Display$GT$3fmt17ha82d3ec4b80898a6E
libvulkan_nouveau.so:_ZN66_$LT$adler..algo..U32X4$u20$as$u20$core..ops..arith..AddAssign$GT$10add_assign17h21ae5d990cc1d2dbE
libvulkan_nouveau.so:_ZN66_$LT$alloc..ffi..c_str..NulError$u20$as$u20$core..fmt..Display$GT$3fmt17hd0feb82dd47cc2b3E
libvulkan_nouveau.so:_ZN66_$LT$core..option..Option$LT$T$GT$$u20$as$u20$core..fmt..Debug$GT$3fmt17hcee793de30c5d53cE
libvulkan_nouveau.so:_ZN66_$LT$core..str..error..Utf8Error$u20$as$u20$core..fmt..Display$GT$3fmt17haf6cadbbb12b1c93E
libvulkan_nouveau.so:_ZN66_$LT$core..sync..atomic..AtomicI16$u20$as$u20$core..fmt..Debug$GT$3fmt17h895947cba360b941E
libvulkan_nouveau.so:_ZN66_$LT$core..sync..atomic..AtomicI32$u20$as$u20$core..fmt..Debug$GT$3fmt17h985c8e8ffc1df7d9E
libvulkan_nouveau.so:_ZN66_$LT$core..sync..atomic..AtomicI64$u20$as$u20$core..fmt..Debug$GT$3fmt17h17797cbaef0b7f2aE
libvulkan_nouveau.so:_ZN66_$LT$core..sync..atomic..AtomicU16$u20$as$u20$core..fmt..Debug$GT$3fmt17h87386ba0f8b2e2a1E
libvulkan_nouveau.so:_ZN66_$LT$core..sync..atomic..AtomicU32$u20$as$u20$core..fmt..Debug$GT$3fmt17h65a3016fc09d79aeE
libvulkan_nouveau.so:_ZN66_$LT$core..sync..atomic..AtomicU64$u20$as$u20$core..fmt..Debug$GT$3fmt17ha799d1f3acc14b6eE
libvulkan_nouveau.so:_ZN66_$LT$object..read..util..DebugByte$u20$as$u20$core..fmt..Debug$GT$3fmt17h553d810812d782f1E
libvulkan_nouveau.so:_ZN66_$LT$std..path..StripPrefixError$u20$as$u20$core..fmt..Display$GT$3fmt17h55061569a1bb5611E
libvulkan_nouveau.so:_ZN66_$LT$std..sync..poison..once..Once$u20$as$u20$core..fmt..Debug$GT$3fmt17h03faf4fb62821924E
libvulkan_nouveau.so:_ZN66_$LT$std..sys..pal..unix..fs..File$u20$as$u20$core..fmt..Debug$GT$3fmt17h273ce8275c5d91eeE
libvulkan_nouveau.so:_ZN66_$LT$std..sys..pal..unix..fs..Mode$u20$as$u20$core..fmt..Debug$GT$3fmt17h8dc6f0a17e127ac5E
libvulkan_nouveau.so:_ZN66_$LT$std..sys_common..wtf8..Wtf8$u20$as$u20$core..fmt..Display$GT$3fmt17h0baeaa2e1d86062cE
libvulkan_nouveau.so:_ZN67_$LT$alloc..boxed..Box$LT$str$GT$$u20$as$u20$core..clone..Clone$GT$5clone17h822e8349c02ca441E
libvulkan_nouveau.so:_ZN67_$LT$alloc..string..FromUtf8Error$u20$as$u20$core..fmt..Display$GT$3fmt17ha6ea5e069ca91c57E
libvulkan_nouveau.so:_ZN67_$LT$compiler..bitset..BitSet$u20$as$u20$core..default..Default$GT$7default17hdfcf5a9e2ef9adcbE
libvulkan_nouveau.so:_ZN67_$LT$core..char..TryFromCharError$u20$as$u20$core..fmt..Display$GT$3fmt17h2dd99278d7535ea2E
libvulkan_nouveau.so:_ZN67_$LT$core..ffi..va_list..VaListImpl$u20$as$u20$core..fmt..Debug$GT$3fmt17heddb82f69d8093d1E
libvulkan_nouveau.so:_ZN67_$LT$core..net..ip_addr..Ipv4Addr$u20$as$u20$core..fmt..Display$GT$3fmt17h528d1b48b9c831d3E
libvulkan_nouveau.so:_ZN67_$LT$core..net..ip_addr..Ipv6Addr$u20$as$u20$core..fmt..Display$GT$3fmt17h626aa9171070d875E
libvulkan_nouveau.so:_ZN67_$LT$core..num..bignum..tests..Big8x3$u20$as$u20$core..cmp..Ord$GT$3cmp17h30fef6020e4e3fd4E
libvulkan_nouveau.so:_ZN67_$LT$core..slice..GetManyMutError$u20$as$u20$core..fmt..Display$GT$3fmt17hca0ba7176a1925b0E
libvulkan_nouveau.so:_ZN67_$LT$core..str..iter..EscapeDebug$u20$as$u20$core..fmt..Display$GT$3fmt17h337bbb3b53fc7db5E
libvulkan_nouveau.so:_ZN67_$LT$core..sync..atomic..AtomicBool$u20$as$u20$core..fmt..Debug$GT$3fmt17hdaecea4ba203aad3E
libvulkan_nouveau.so:_ZN67_$LT$gimli..constants..DwChildren$u20$as$u20$core..fmt..Display$GT$3fmt17ha2c544425c2717e9E
libvulkan_nouveau.so:_ZN67_$LT$object..read..util..ByteString$u20$as$u20$core..fmt..Debug$GT$3fmt17h3274e9da65e977f1E
libvulkan_nouveau.so:_ZN67_$LT$rustc_demangle..v0..Demangle$u20$as$u20$core..fmt..Display$GT$3fmt17h243bafa29d01f980E
libvulkan_nouveau.so:_ZN67_$LT$std..backtrace..BacktraceFrame$u20$as$u20$core..fmt..Debug$GT$3fmt17he8bf36cb100db7e8E
libvulkan_nouveau.so:_ZN67_$LT$std..hash..random..RandomState$u20$as$u20$core..fmt..Debug$GT$3fmt17h36bb68b89d26a228E
libvulkan_nouveau.so:_ZN67_$LT$std..os..fd..owned..BorrowedFd$u20$as$u20$core..fmt..Debug$GT$3fmt17h89dfa599e44c7d5dE
libvulkan_nouveau.so:_ZN67_$LT$std..sys..os_str..bytes..Buf$u20$as$u20$core..fmt..Display$GT$3fmt17hb2c25c79ae2671ceE
libvulkan_nouveau.so:_ZN67_$LT$std..sys..os_str..bytes..Slice$u20$as$u20$core..fmt..Debug$GT$3fmt17hd3930540ebd17aa1E
libvulkan_nouveau.so:_ZN67_$LT$std..sys..pal..unix..stdio..Stdin$u20$as$u20$std..io..Read$GT$13read_vectored17hc8d9795b3a60863cE
libvulkan_nouveau.so:_ZN67_$LT$std..sys..pal..unix..stdio..Stdin$u20$as$u20$std..io..Read$GT$4read17hef65f317984e2273E
libvulkan_nouveau.so:_ZN67_$LT$std..sys..pal..unix..stdio..Stdin$u20$as$u20$std..io..Read$GT$8read_buf17hde85be04cd0b2d6eE
libvulkan_nouveau.so:_ZN68_$LT$$RF$$u5b$u8$u5d$$u20$as$u20$object..read..read_ref..ReadRef$GT$19read_bytes_at_until17hce9011ea211bd617E
libvulkan_nouveau.so:_ZN68_$LT$alloc..string..FromUtf16Error$u20$as$u20$core..fmt..Display$GT$3fmt17h29433115d9ea98f9E
libvulkan_nouveau.so:_ZN68_$LT$compiler..bindings..nir_def$u20$as$u20$compiler..nir..AsDef$GT$6as_def17he946302e2417524aE
libvulkan_nouveau.so:_ZN68_$LT$compiler..bindings..nir_src$u20$as$u20$compiler..nir..AsDef$GT$6as_def17h4c1f779fe70f1744E
libvulkan_nouveau.so:_ZN68_$LT$core..fmt..builders..PadAdapter$u20$as$u20$core..fmt..Write$GT$10write_char17h3e840ff3ea763731E
libvulkan_nouveau.so:_ZN68_$LT$core..fmt..builders..PadAdapter$u20$as$u20$core..fmt..Write$GT$9write_str17h94864b19b98ebe68E
libvulkan_nouveau.so:_ZN68_$LT$core..num..bignum..Big32x40$u20$as$u20$core..cmp..PartialEq$GT$2eq17h0d8a7d1d4466f613E
libvulkan_nouveau.so:_ZN68_$LT$core..ptr..alignment..Alignment$u20$as$u20$core..fmt..Debug$GT$3fmt17h336f1441026339faE
libvulkan_nouveau.so:_ZN68_$LT$core..slice..ascii..EscapeAscii$u20$as$u20$core..fmt..Debug$GT$3fmt17hef617f0482435b90E
libvulkan_nouveau.so:_ZN68_$LT$core..sync..atomic..AtomicIsize$u20$as$u20$core..fmt..Debug$GT$3fmt17h0e96a8e3df5304cbE
libvulkan_nouveau.so:_ZN68_$LT$core..sync..atomic..AtomicUsize$u20$as$u20$core..fmt..Debug$GT$3fmt17h09d95d3a7f1f069eE
libvulkan_nouveau.so:_ZN68_$LT$gimli..constants..DwDefaulted$u20$as$u20$core..fmt..Display$GT$3fmt17hec4bde9701de31d5E
libvulkan_nouveau.so:_ZN68_$LT$gimli..read..abbrev..Attributes$u20$as$u20$core..fmt..Debug$GT$3fmt17h5e4da8a3a6b548c1E
libvulkan_nouveau.so:_ZN68_$LT$rustc_demangle..DemangleStyle$u20$as$u20$core..fmt..Display$GT$3fmt17h282aba9f9c0de89eE
libvulkan_nouveau.so:_ZN68_$LT$std..backtrace..BacktraceSymbol$u20$as$u20$core..fmt..Debug$GT$3fmt17h11f3c2b442dd0b68E
libvulkan_nouveau.so:_ZN68_$LT$std..process..ExitStatusError$u20$as$u20$core..fmt..Display$GT$3fmt17he3d07686d133b05dE
libvulkan_nouveau.so:_ZN68_$LT$std..sync..mpsc..TryRecvError$u20$as$u20$core..fmt..Display$GT$3fmt17h89c3846bd2a430a5E
libvulkan_nouveau.so:_ZN68_$LT$std..sys..pal..unix..args..Args$u20$as$u20$core..fmt..Debug$GT$3fmt17h443e5cfa057093a5E
libvulkan_nouveau.so:_ZN68_$LT$std..sys_common..net..TcpStream$u20$as$u20$core..fmt..Debug$GT$3fmt17h294b2fd0e53d718aE
libvulkan_nouveau.so:_ZN68_$LT$std..sys_common..net..UdpSocket$u20$as$u20$core..fmt..Debug$GT$3fmt17h71271772354714c4E
libvulkan_nouveau.so:_ZN68_$LT$std..thread..local..AccessError$u20$as$u20$core..fmt..Debug$GT$3fmt17ha6f6a005acfad9eaE
libvulkan_nouveau.so:_ZN69_$LT$alloc..ffi..c_str..CString$u20$as$u20$core..default..Default$GT$7default17h4ff224ccad437aa5E
libvulkan_nouveau.so:_ZN69_$LT$core..ffi..c_str..CStr$u20$as$u20$core..clone..CloneToUninit$GT$15clone_to_uninit17h78da29df9a28a6a5E
libvulkan_nouveau.so:_ZN69_$LT$core..num..bignum..Big32x40$u20$as$u20$core..cmp..PartialOrd$GT$11partial_cmp17h533ac7e145921c9aE
libvulkan_nouveau.so:_ZN69_$LT$core..num..bignum..tests..Big8x3$u20$as$u20$core..fmt..Debug$GT$3fmt17h3a7b4fd243fad33fE
libvulkan_nouveau.so:_ZN69_$LT$core..pin..Pin$LT$Ptr$GT$$u20$as$u20$core..ops..deref..Deref$GT$5deref17h364372d4d3eb9467E
libvulkan_nouveau.so:_ZN69_$LT$core..str..iter..EscapeDefault$u20$as$u20$core..fmt..Display$GT$3fmt17h213fdd8e174b566bE
libvulkan_nouveau.so:_ZN69_$LT$core..str..iter..EscapeUnicode$u20$as$u20$core..fmt..Display$GT$3fmt17he6d01c9bf696df3cE
libvulkan_nouveau.so:_ZN69_$LT$gimli..constants..DwVirtuality$u20$as$u20$core..fmt..Display$GT$3fmt17h680b5832c6110ffaE
libvulkan_nouveau.so:_ZN69_$LT$object..read..pe..export..Export$u20$as$u20$core..fmt..Debug$GT$3fmt17h55212bbd15aba761E
libvulkan_nouveau.so:_ZN69_$LT$std..fs..DirEntry$u20$as$u20$std..os..unix..fs..DirEntryExt2$GT$13file_name_ref17h5503bb519a24135fE
libvulkan_nouveau.so:_ZN69_$LT$std..sync..mpmc..zero..ZeroToken$u20$as$u20$core..fmt..Debug$GT$3fmt17hebe1c3be834f6031E
libvulkan_nouveau.so:_ZN69_$LT$std..sys..os_str..bytes..Slice$u20$as$u20$core..fmt..Display$GT$3fmt17h9eb0caf11d337567E
libvulkan_nouveau.so:_ZN69_$LT$std..sys..pal..unix..fs..ReadDir$u20$as$u20$core..fmt..Debug$GT$3fmt17hb9089009b3cf40c5E
libvulkan_nouveau.so:_ZN69_$LT$std..sys..pal..unix..stdio..Stderr$u20$as$u20$std..io..Write$GT$14write_vectored17h7365af19f357b648E
libvulkan_nouveau.so:_ZN69_$LT$std..sys..pal..unix..stdio..Stderr$u20$as$u20$std..io..Write$GT$5write17hd431ef7197708c91E
libvulkan_nouveau.so:_ZN69_$LT$std..sys..pal..unix..stdio..Stdout$u20$as$u20$std..io..Write$GT$14write_vectored17h4b8dc384ca89cb43E
libvulkan_nouveau.so:_ZN69_$LT$std..sys..pal..unix..stdio..Stdout$u20$as$u20$std..io..Write$GT$5write17h0f39f82f59570077E
libvulkan_nouveau.so:_ZN6object3elf4hash17h33eb65fe1dc8d872E
libvulkan_nouveau.so:_ZN6object3elf8gnu_hash17hd5669671d999a6a6E
libvulkan_nouveau.so:_ZN6object4read13RelocationMap8relocate17h4a2c8b093d2909b7E
libvulkan_nouveau.so:_ZN6object4read2pe10relocation23RelocationBlockIterator4next17ha2fcb96dc4948fb9E
libvulkan_nouveau.so:_ZN6object4read2pe14data_directory15DataDirectories3get17h0400803a4d57a658E
libvulkan_nouveau.so:_ZN6object4read2pe14data_directory15DataDirectories5parse17h217f1af6ef15fc7aE
libvulkan_nouveau.so:_ZN6object4read2pe14data_directory48_$LT$impl$u20$object..pe..ImageDataDirectory$GT$10file_range17hc839682a36c4ce5dE
libvulkan_nouveau.so:_ZN6object4read2pe4rich6memmem17hd757501bf9a7a458E
libvulkan_nouveau.so:_ZN6object4read2pe6export11ExportTable14forward_string17h008d559bffe87191E
libvulkan_nouveau.so:_ZN6object4read2pe6export11ExportTable15parse_directory17h39c26277835d1df9E
libvulkan_nouveau.so:_ZN6object4read2pe6export11ExportTable15target_by_index17h78eae2b13bd63e81E
libvulkan_nouveau.so:_ZN6object4read2pe6export11ExportTable17name_from_pointer17h07e92f564d580920E
libvulkan_nouveau.so:_ZN6object4read2pe6export11ExportTable17target_by_ordinal17hf8f6a58c0457c176E
libvulkan_nouveau.so:_ZN6object4read2pe6export11ExportTable18address_by_ordinal17h3c15a02888d230bfE
libvulkan_nouveau.so:_ZN6object4read2pe6export11ExportTable19target_from_address17h62b6cd47b83650e1E
libvulkan_nouveau.so:_ZN6object4read2pe6export11ExportTable5parse17h0954f9086e73471bE
libvulkan_nouveau.so:_ZN6object4read2pe6export11ExportTable7exports17hc80a2a2795fa02c1E
libvulkan_nouveau.so:_ZN6object4read2pe6export11ExportTable9name_iter17h7efbbfa54bce6adeE
libvulkan_nouveau.so:_ZN6object4read2pe6import11ImportTable4name17h05fd885e08cf3d25E
libvulkan_nouveau.so:_ZN6object4read2pe6import11ImportTable9hint_name17h69cbcaf8f8010c8eE
libvulkan_nouveau.so:_ZN6object4read2pe6import20DelayLoadImportTable4name17hf8f1bfe71d97abacE
libvulkan_nouveau.so:_ZN6object4read2pe6import20DelayLoadImportTable9hint_name17hd9418cd76a976b99E
libvulkan_nouveau.so:_ZN6object4read2pe6import24ImportDescriptorIterator4next17h5b8df8e285ba64dfE
libvulkan_nouveau.so:_ZN6object4read2pe6import27DelayLoadDescriptorIterator4next17h71e56a2030e3533eE
libvulkan_nouveau.so:_ZN6object4read2pe7section48_$LT$impl$u20$object..pe..ImageSectionHeader$GT$13pe_file_range17hf03e1f6333681a3dE
libvulkan_nouveau.so:_ZN6object4read2pe7section48_$LT$impl$u20$object..pe..ImageSectionHeader$GT$16pe_file_range_at17h94e0500b1c81ca04E
libvulkan_nouveau.so:_ZN6object4read2pe7section59_$LT$impl$u20$object..read..coff..section..SectionTable$GT$16pe_file_range_at17h3422d236c2e8c7b0E
libvulkan_nouveau.so:_ZN6object4read2pe7section59_$LT$impl$u20$object..read..coff..section..SectionTable$GT$18section_containing17ha7f31bfe43f9dfb8E
libvulkan_nouveau.so:_ZN6object4read2pe8resource12ResourceName15to_string_lossy17hc1fcdfa09ea862eaE
libvulkan_nouveau.so:_ZN6object4read2pe8resource12ResourceName4data17h2ccfdfff02f7242bE
libvulkan_nouveau.so:_ZN6object4read2pe8resource12ResourceName8raw_data17h8b4a917bc583cee7E
libvulkan_nouveau.so:_ZN6object4read2pe8resource17ResourceDirectory4root17h12c2ca85ae1d1d96E
libvulkan_nouveau.so:_ZN6object4read2pe8resource57_$LT$impl$u20$object..pe..ImageResourceDirectoryEntry$GT$4data17heb5a848b6e6b5e0fE
libvulkan_nouveau.so:_ZN6object4read3elf10attributes15AttributeReader11read_string17h7cc6ce789966abceE
libvulkan_nouveau.so:_ZN6object4read3elf10attributes15AttributeReader12read_integer17h8536b8e180ce0829E
libvulkan_nouveau.so:_ZN6object4read3elf10attributes15AttributeReader8read_tag17hf0e440db1f7190adE
libvulkan_nouveau.so:_ZN6object4read3elf10attributes22AttributeIndexIterator4next17h5f5ba390692123f1E
libvulkan_nouveau.so:_ZN6object4read3elf10relocation18RelocationSections3get17h81de2d692703090cE
libvulkan_nouveau.so:_ZN6object4read4coff6import10ImportFile5parse12strip_prefix17hcb604797dcb20a48E
libvulkan_nouveau.so:_ZN6object4read4coff7section12SectionTable23max_section_file_offset17ha7417222ea3315ecE
libvulkan_nouveau.so:_ZN6object4read4coff7section48_$LT$impl$u20$object..pe..ImageSectionHeader$GT$11name_offset17hb6e944cdc05230cfE
libvulkan_nouveau.so:_ZN6object4read4coff7section48_$LT$impl$u20$object..pe..ImageSectionHeader$GT$8raw_name17h714d276674fb2a0aE
libvulkan_nouveau.so:_ZN6object4read4util5Bytes12read_sleb12817h68c61d3c752f843eE
libvulkan_nouveau.so:_ZN6object4read4util5Bytes12read_uleb12817ha17a6d6747f888dfE
libvulkan_nouveau.so:_ZN6object4read7archive16parse_u64_digits17h7aaaf5b5a62efc9dE
libvulkan_nouveau.so:_ZN6object4read7archive24parse_sysv_extended_name17h96d03a623ce6c8fbE
libvulkan_nouveau.so:_ZN6object4read9ObjectMap3get17h9854de4b0f5d591eE
libvulkan_nouveau.so:_ZN70_$LT$alloc..vec..Vec$LT$T$C$A$GT$$u20$as$u20$core..ops..drop..Drop$GT$4drop17hb87ea83973ccd5f6E
libvulkan_nouveau.so:_ZN70_$LT$alloc..vec..Vec$LT$T$C$A$GT$$u20$as$u20$core..ops..drop..Drop$GT$4drop17hfec3b93322d8c541E
libvulkan_nouveau.so:_ZN70_$LT$core..fmt..num..Octal$u20$as$u20$core..fmt..num..GenericRadix$GT$5digit17h87e7b78192d6abf2E
libvulkan_nouveau.so:_ZN70_$LT$core..num..error..ParseIntError$u20$as$u20$core..fmt..Display$GT$3fmt17hf0cf1448fc40abf7E
libvulkan_nouveau.so:_ZN70_$LT$core..slice..ascii..EscapeAscii$u20$as$u20$core..fmt..Display$GT$3fmt17h9d4e0de295885f8eE
libvulkan_nouveau.so:_ZN70_$LT$std..sys..pal..unix..fs..Dir$u20$as$u20$core..ops..drop..Drop$GT$4drop17h583fc11bf0b2f256E
libvulkan_nouveau.so:_ZN70_$LT$std..sys..pal..unix..fs..FileType$u20$as$u20$core..fmt..Debug$GT$3fmt17hb630cb201dbbea6dE
libvulkan_nouveau.so:_ZN70_$LT$std..sys_common..net..TcpListener$u20$as$u20$core..fmt..Debug$GT$3fmt17h87e0c5dde8639e44E
libvulkan_nouveau.so:_ZN70_$LT$std..thread..local..AccessError$u20$as$u20$core..fmt..Display$GT$3fmt17he4d1d92544e820d8E
libvulkan_nouveau.so:_ZN71_$LT$$RF$std..sys..pal..unix..fd..FileDesc$u20$as$u20$std..io..Read$GT$13read_vectored17h72db32cc8b4339d9E
libvulkan_nouveau.so:_ZN71_$LT$$RF$std..sys..pal..unix..fd..FileDesc$u20$as$u20$std..io..Read$GT$4read17h9b09100777635aaaE
libvulkan_nouveau.so:_ZN71_$LT$$RF$std..sys..pal..unix..fd..FileDesc$u20$as$u20$std..io..Read$GT$8read_buf17hdd91a188984030bcE
libvulkan_nouveau.so:_ZN71_$LT$core..alloc..layout..LayoutError$u20$as$u20$core..fmt..Display$GT$3fmt17h24dab8b17e3b0ed2E
libvulkan_nouveau.so:_ZN71_$LT$core..ascii..ascii_char..AsciiChar$u20$as$u20$core..fmt..Debug$GT$3fmt17h41a0e15e667d4701E
libvulkan_nouveau.so:_ZN71_$LT$core..fmt..num..Binary$u20$as$u20$core..fmt..num..GenericRadix$GT$5digit17h694e6b20a686519bE
libvulkan_nouveau.so:_ZN71_$LT$core..net..socket_addr..SocketAddr$u20$as$u20$core..fmt..Debug$GT$3fmt17h682cd6d4659e0996E
libvulkan_nouveau.so:_ZN71_$LT$core..str..error..ParseBoolError$u20$as$u20$core..fmt..Display$GT$3fmt17hbbe7a7e87774bc4eE
libvulkan_nouveau.so:_ZN71_$LT$rustc_demangle..legacy..Demangle$u20$as$u20$core..fmt..Display$GT$3fmt17hec58238c42b72385E
libvulkan_nouveau.so:_ZN71_$LT$std..sync..poison..once..OnceState$u20$as$u20$core..fmt..Debug$GT$3fmt17h5d8a8a5496f52c2fE
libvulkan_nouveau.so:_ZN71_$LT$std..sys..pal..unix..time..Instant$u20$as$u20$core..fmt..Debug$GT$3fmt17h3128a2839981546dE
libvulkan_nouveau.so:_ZN72_$LT$$RF$str$u20$as$u20$alloc..ffi..c_str..CString..new..SpecNewImpl$GT$13spec_new_impl17h0aadd8d374c86e34E
libvulkan_nouveau.so:_ZN72_$LT$alloc..boxed..Box$LT$T$C$A$GT$$u20$as$u20$core..ops..drop..Drop$GT$4drop17h6ce3d58b58a4c457E
libvulkan_nouveau.so:_ZN72_$LT$alloc..string..Drain$u20$as$u20$core..convert..AsRef$LT$str$GT$$GT$6as_ref17h3cbd511d6421d55fE
libvulkan_nouveau.so:_ZN72_$LT$alloc..vec..Vec$LT$T$C$A$GT$$u20$as$u20$core..ops..deref..Deref$GT$5deref17h377c3d4a0461e980E
libvulkan_nouveau.so:_ZN72_$LT$compiler..memstream..MemStream$u20$as$u20$core..ops..drop..Drop$GT$4drop17hf745c9b1db100d22E
libvulkan_nouveau.so:_ZN72_$LT$core..io..borrowed_buf..BorrowedBuf$u20$as$u20$core..fmt..Debug$GT$3fmt17he1417b7da4d1784bE
libvulkan_nouveau.so:_ZN72_$LT$core..net..parser..AddrParseError$u20$as$u20$core..fmt..Display$GT$3fmt17h58b5a2ab6b199147E
libvulkan_nouveau.so:_ZN72_$LT$core..num..error..TryFromIntError$u20$as$u20$core..fmt..Display$GT$3fmt17h40c21d19ef80fb7bE
libvulkan_nouveau.so:_ZN72_$LT$core..time..TryFromFloatSecsError$u20$as$u20$core..fmt..Display$GT$3fmt17h7178f3c67557f281E
libvulkan_nouveau.so:_ZN72_$LT$gimli..read..abbrev..Attributes$u20$as$u20$core..cmp..PartialEq$GT$2eq17hab313deac3d08337E
libvulkan_nouveau.so:_ZN72_$LT$gimli..read..endian_slice..DebugLen$u20$as$u20$core..fmt..Debug$GT$3fmt17h8d2750e6eb2e54a7E
libvulkan_nouveau.so:_ZN72_$LT$std..backtrace_rs..backtrace..Frame$u20$as$u20$core..fmt..Debug$GT$3fmt17hb0f5ef3423fe7c8aE
libvulkan_nouveau.so:_ZN72_$LT$std..os..unix..net..stream..UnixStream$u20$as$u20$std..io..Read$GT$13read_vectored17h5a25b58eaad42cd4E
libvulkan_nouveau.so:_ZN72_$LT$std..os..unix..net..stream..UnixStream$u20$as$u20$std..io..Read$GT$4read17h62719d0600779c4fE
libvulkan_nouveau.so:_ZN72_$LT$std..os..unix..net..stream..UnixStream$u20$as$u20$std..io..Read$GT$8read_buf17h953673e6aea070ddE
libvulkan_nouveau.so:_ZN72_$LT$std..sync..mpsc..RecvTimeoutError$u20$as$u20$core..fmt..Display$GT$3fmt17h62eabbdd613c4952E
libvulkan_nouveau.so:_ZN72_$LT$std..sync..poison..condvar..Condvar$u20$as$u20$core..fmt..Debug$GT$3fmt17h46a5de6940eea9d0E
libvulkan_nouveau.so:_ZN72_$LT$std..sys..pal..unix..fs..DirBuilder$u20$as$u20$core..fmt..Debug$GT$3fmt17h5bc4bcceac0adc64E
libvulkan_nouveau.so:_ZN73_$LT$$RF$alloc..string..String$u20$as$u20$core..str..pattern..Pattern$GT$13into_searcher17h838a9a1dfedc46f3E
libvulkan_nouveau.so:_ZN73_$LT$$u5b$A$u5d$$u20$as$u20$core..slice..cmp..SlicePartialEq$LT$B$GT$$GT$5equal17h51d030901338a2b3E
libvulkan_nouveau.so:_ZN73_$LT$$u5b$A$u5d$$u20$as$u20$core..slice..cmp..SlicePartialEq$LT$B$GT$$GT$5equal17heb3faac802b90518E
libvulkan_nouveau.so:_ZN73_$LT$alloc..ffi..c_str..IntoStringError$u20$as$u20$core..fmt..Display$GT$3fmt17hd71ccbb1e0c15658E
libvulkan_nouveau.so:_ZN73_$LT$core..ascii..ascii_char..AsciiChar$u20$as$u20$core..fmt..Display$GT$3fmt17h947ab3e4ba14e069E
libvulkan_nouveau.so:_ZN73_$LT$core..fmt..num..LowerHex$u20$as$u20$core..fmt..num..GenericRadix$GT$5digit17h57250bce0d6182daE
libvulkan_nouveau.so:_ZN73_$LT$core..fmt..num..UpperHex$u20$as$u20$core..fmt..num..GenericRadix$GT$5digit17he46282f6c142d396E
libvulkan_nouveau.so:_ZN73_$LT$core..net..socket_addr..SocketAddr$u20$as$u20$core..fmt..Display$GT$3fmt17hf7181267b9043f0fE
libvulkan_nouveau.so:_ZN73_$LT$core..net..socket_addr..SocketAddrV4$u20$as$u20$core..fmt..Debug$GT$3fmt17h58305908388413feE
libvulkan_nouveau.so:_ZN73_$LT$core..net..socket_addr..SocketAddrV6$u20$as$u20$core..fmt..Debug$GT$3fmt17hf9b85d3346e147a4E
libvulkan_nouveau.so:_ZN73_$LT$core..num..bignum..tests..Big8x3$u20$as$u20$core..cmp..PartialEq$GT$2eq17ha178b150de699749E
libvulkan_nouveau.so:_ZN73_$LT$core..panic..panic_info..PanicInfo$u20$as$u20$core..fmt..Display$GT$3fmt17hb6c9d7f0889eec80E
libvulkan_nouveau.so:_ZN73_$LT$gimli..read..endian_slice..DebugByte$u20$as$u20$core..fmt..Debug$GT$3fmt17h8cb02abf6b662922E
libvulkan_nouveau.so:_ZN73_$LT$std..backtrace_rs..symbolize..Symbol$u20$as$u20$core..fmt..Debug$GT$3fmt17h92c76dca4798b0e3E
libvulkan_nouveau.so:_ZN73_$LT$std..env..Args$u20$as$u20$core..iter..traits..iterator..Iterator$GT$4next17h069c2b2074f8c214E
libvulkan_nouveau.so:_ZN73_$LT$std..env..Args$u20$as$u20$core..iter..traits..iterator..Iterator$GT$9size_hint17hef08139ebc5d4caaE
libvulkan_nouveau.so:_ZN73_$LT$std..env..Vars$u20$as$u20$core..iter..traits..iterator..Iterator$GT$4next17h155392b9245ab395E
libvulkan_nouveau.so:_ZN73_$LT$std..env..Vars$u20$as$u20$core..iter..traits..iterator..Iterator$GT$9size_hint17hb9a15d97f2345604E
libvulkan_nouveau.so:_ZN73_$LT$std..os..unix..net..addr..SocketAddr$u20$as$u20$core..fmt..Debug$GT$3fmt17h6770e07c6e58f1cbE
libvulkan_nouveau.so:_ZN73_$LT$std..os..unix..net..stream..UnixStream$u20$as$u20$std..io..Write$GT$14write_vectored17hcbd87e1031f1f051E
libvulkan_nouveau.so:_ZN73_$LT$std..os..unix..net..stream..UnixStream$u20$as$u20$std..io..Write$GT$5write17h02433adc9be54dccE
libvulkan_nouveau.so:_ZN73_$LT$std..sys..pal..unix..fs..OpenOptions$u20$as$u20$core..fmt..Debug$GT$3fmt17h5f605f66598482beE
libvulkan_nouveau.so:_ZN73_$LT$std..sys..pal..unix..os..EnvStrDebug$u20$as$u20$core..fmt..Debug$GT$3fmt17h084911010325dcf8E
libvulkan_nouveau.so:_ZN73_$LT$std..sys_common..process..CommandEnv$u20$as$u20$core..fmt..Debug$GT$3fmt17hcfc73ced1dc66c67E
libvulkan_nouveau.so:_ZN74_$LT$alloc..boxed..Box$LT$T$C$A$GT$$u20$as$u20$core..ops..deref..Deref$GT$5deref17hacec760cd75a4641E
libvulkan_nouveau.so:_ZN74_$LT$alloc..collections..TryReserveError$u20$as$u20$core..fmt..Display$GT$3fmt17h0dc6ce67f8df2aeeE
libvulkan_nouveau.so:_ZN74_$LT$core..char..convert..ParseCharError$u20$as$u20$core..fmt..Display$GT$3fmt17hf0348d5f77d338ebE
libvulkan_nouveau.so:_ZN74_$LT$core..num..bignum..tests..Big8x3$u20$as$u20$core..cmp..PartialOrd$GT$11partial_cmp17h09b69c9173158533E
libvulkan_nouveau.so:_ZN74_$LT$core..num..dec2flt..ParseFloatError$u20$as$u20$core..fmt..Display$GT$3fmt17h3648d7a74f0a7e52E
libvulkan_nouveau.so:_ZN74_$LT$gimli..read..endian_slice..DebugBytes$u20$as$u20$core..fmt..Debug$GT$3fmt17hbfe00621d9941ba6E
libvulkan_nouveau.so:_ZN74_$LT$std..sync..barrier..BarrierWaitResult$u20$as$u20$core..fmt..Debug$GT$3fmt17hf4fbdd1c7cc67543E
libvulkan_nouveau.so:_ZN74_$LT$std..sys..pal..unix..time..SystemTime$u20$as$u20$core..fmt..Debug$GT$3fmt17h281c66cb8a542179E
libvulkan_nouveau.so:_ZN74_$LT$std..sys_common..net..LookupHost$u20$as$u20$core..ops..drop..Drop$GT$4drop17h1e13688ddc2cf205E
libvulkan_nouveau.so:_ZN74_$LT$std..sys_common..wtf8..Wtf8Buf$u20$as$u20$core..ops..deref..Deref$GT$5deref17h0a8fad31f3c109e1E
libvulkan_nouveau.so:_ZN75_$LT$alloc..vec..Vec$LT$T$C$A$GT$$u20$as$u20$core..ops..deref..DerefMut$GT$9deref_mut17h4961c208e5581e2bE
libvulkan_nouveau.so:_ZN75_$LT$core..char..decode..DecodeUtf16Error$u20$as$u20$core..fmt..Display$GT$3fmt17h0b3f7503edb3a616E
libvulkan_nouveau.so:_ZN75_$LT$core..net..socket_addr..SocketAddrV4$u20$as$u20$core..fmt..Display$GT$3fmt17h6a1534e5b517d7abE
libvulkan_nouveau.so:_ZN75_$LT$core..net..socket_addr..SocketAddrV6$u20$as$u20$core..fmt..Display$GT$3fmt17ha1b7002185be12e5E
libvulkan_nouveau.so:_ZN75_$LT$gimli..read..abbrev..Attributes$u20$as$u20$core..ops..deref..Deref$GT$5deref17h1d57023f31269d10E
libvulkan_nouveau.so:_ZN75_$LT$object..read..pe..export..ExportTarget$u20$as$u20$core..fmt..Debug$GT$3fmt17h26a5b7f5ed043dd3E
libvulkan_nouveau.so:_ZN75_$LT$std..env..ArgsOs$u20$as$u20$core..iter..traits..iterator..Iterator$GT$4next17hef2581ff8d632af7E
libvulkan_nouveau.so:_ZN75_$LT$std..env..ArgsOs$u20$as$u20$core..iter..traits..iterator..Iterator$GT$9size_hint17ha26ba6e33305d442E
libvulkan_nouveau.so:_ZN75_$LT$std..env..VarsOs$u20$as$u20$core..iter..traits..iterator..Iterator$GT$4next17h686c4d279ef9d683E
libvulkan_nouveau.so:_ZN75_$LT$std..env..VarsOs$u20$as$u20$core..iter..traits..iterator..Iterator$GT$9size_hint17h54f845c3edd6ed29E
libvulkan_nouveau.so:_ZN75_$LT$std..fs..ReadDir$u20$as$u20$core..iter..traits..iterator..Iterator$GT$4next17h02e763cbef56d18dE
libvulkan_nouveau.so:_ZN75_$LT$std..os..linux..process..PidFd$u20$as$u20$std..os..fd..owned..AsFd$GT$5as_fd17h656acd4713fe6193E
libvulkan_nouveau.so:_ZN75_$LT$std..os..unix..net..stream..UnixStream$u20$as$u20$core..fmt..Debug$GT$3fmt17hdf3d9e270f6737f8E
libvulkan_nouveau.so:_ZN75_$LT$usize$u20$as$u20$core..slice..index..SliceIndex$LT$$u5b$T$u5d$$GT$$GT$5index17h3f3c3a65f6f9a16cE
libvulkan_nouveau.so:_ZN75_$LT$usize$u20$as$u20$core..slice..index..SliceIndex$LT$$u5b$T$u5d$$GT$$GT$9index_mut17h9630fb68a768cc27E
libvulkan_nouveau.so:_ZN76_$LT$$RF$std..os..unix..net..stream..UnixStream$u20$as$u20$std..io..Read$GT$13read_vectored17h1a52c86fc1d3bd60E
libvulkan_nouveau.so:_ZN76_$LT$$RF$std..os..unix..net..stream..UnixStream$u20$as$u20$std..io..Read$GT$4read17hf662547dfeadf4a7E
libvulkan_nouveau.so:_ZN76_$LT$$RF$std..os..unix..net..stream..UnixStream$u20$as$u20$std..io..Read$GT$8read_buf17h04ba2e35e293b906E
libvulkan_nouveau.so:_ZN76_$LT$core..char..convert..CharTryFromError$u20$as$u20$core..fmt..Display$GT$3fmt17h00681a4c9b386650E
libvulkan_nouveau.so:_ZN76_$LT$core..mem..transmutability..Assume$u20$as$u20$core..ops..arith..Sub$GT$3sub17h011a1526b8f2307aE
libvulkan_nouveau.so:_ZN76_$LT$core..net..ip_addr..Ipv4Addr$u20$as$u20$core..ops..bit..BitOrAssign$GT$12bitor_assign17h65128613818e8cbdE
libvulkan_nouveau.so:_ZN76_$LT$core..net..ip_addr..Ipv6Addr$u20$as$u20$core..ops..bit..BitOrAssign$GT$12bitor_assign17hc308bc308b3ea79aE
libvulkan_nouveau.so:_ZN76_$LT$std..fs..File$u20$as$u20$std..sys..pal..unix..kernel_copy..CopyRead$GT$10properties17h822ab82e13e1ad27E
libvulkan_nouveau.so:_ZN76_$LT$std..process..Command$u20$as$u20$std..os..unix..process..CommandExt$GT$4exec17h576d645fb6f0edbdE
libvulkan_nouveau.so:_ZN76_$LT$std..process..Command$u20$as$u20$std..os..unix..process..CommandExt$GT$6groups17habf7abdca4d9b0e4E
libvulkan_nouveau.so:_ZN76_$LT$std..thread..spawnhook..SpawnHooks$u20$as$u20$core..ops..drop..Drop$GT$4drop17h009d22f2eaae8c36E
libvulkan_nouveau.so:_ZN77_$LT$$RF$std..os..unix..net..stream..UnixStream$u20$as$u20$std..io..Write$GT$14write_vectored17hbc23f49882d7e512E
libvulkan_nouveau.so:_ZN77_$LT$$RF$std..os..unix..net..stream..UnixStream$u20$as$u20$std..io..Write$GT$5write17h025e07c8b135d793E
libvulkan_nouveau.so:_ZN77_$LT$adler..algo..U32X4$u20$as$u20$core..ops..arith..MulAssign$LT$u32$GT$$GT$10mul_assign17h261510fd3d6cadfdE
libvulkan_nouveau.so:_ZN77_$LT$adler..algo..U32X4$u20$as$u20$core..ops..arith..RemAssign$LT$u32$GT$$GT$10rem_assign17h3bed64deb32b8b55E
libvulkan_nouveau.so:_ZN77_$LT$alloc..borrow..Cow$LT$str$GT$$u20$as$u20$core..ops..arith..AddAssign$GT$10add_assign17hdff255b9121757afE
libvulkan_nouveau.so:_ZN77_$LT$alloc..boxed..Box$LT$T$C$A$GT$$u20$as$u20$core..ops..deref..DerefMut$GT$9deref_mut17h92b316f03da834c7E
libvulkan_nouveau.so:_ZN77_$LT$alloc..ffi..c_str..FromVecWithNulError$u20$as$u20$core..fmt..Display$GT$3fmt17hc83c64c58434d642E
libvulkan_nouveau.so:_ZN77_$LT$alloc..raw_vec..RawVec$LT$T$C$A$GT$$u20$as$u20$core..ops..drop..Drop$GT$4drop17h818740d29954ad22E
libvulkan_nouveau.so:_ZN77_$LT$alloc..raw_vec..RawVec$LT$T$C$A$GT$$u20$as$u20$core..ops..drop..Drop$GT$4drop17ha59ffa9e57208829E
libvulkan_nouveau.so:_ZN77_$LT$core..net..ip_addr..Ipv4Addr$u20$as$u20$core..ops..bit..BitAndAssign$GT$13bitand_assign17h28beaa4bfa405348E
libvulkan_nouveau.so:_ZN77_$LT$core..net..ip_addr..Ipv6Addr$u20$as$u20$core..ops..bit..BitAndAssign$GT$13bitand_assign17h9c6187d10000e12dE
libvulkan_nouveau.so:_ZN77_$LT$object..xcoff..Rel32$u20$as$u20$object..read..xcoff..relocation..Rel$GT$7r_vaddr17h70eaef8538bf3df6E
libvulkan_nouveau.so:_ZN77_$LT$object..xcoff..Rel32$u20$as$u20$object..read..xcoff..relocation..Rel$GT$8r_symndx17ha64fc5c4e647c576E
libvulkan_nouveau.so:_ZN77_$LT$object..xcoff..Rel64$u20$as$u20$object..read..xcoff..relocation..Rel$GT$7r_vaddr17h04efdcb09b7dbe5fE
libvulkan_nouveau.so:_ZN77_$LT$object..xcoff..Rel64$u20$as$u20$object..read..xcoff..relocation..Rel$GT$8r_symndx17h33e08dcdaebe9c88E
libvulkan_nouveau.so:_ZN77_$LT$std..backtrace_rs..symbolize..SymbolName$u20$as$u20$core..fmt..Debug$GT$3fmt17h4a1988c16fb66d9cE
libvulkan_nouveau.so:_ZN77_$LT$std..fs..File$u20$as$u20$std..sys..pal..unix..kernel_copy..CopyWrite$GT$10properties17h2783a70821d63cebE
libvulkan_nouveau.so:_ZN77_$LT$std..sys..pal..unix..fs..File$u20$as$u20$std..os..fd..raw..FromRawFd$GT$11from_raw_fd17hf22894167e195b10E
libvulkan_nouveau.so:_ZN77_$LT$std..sys..pal..unix..fs..FilePermissions$u20$as$u20$core..fmt..Debug$GT$3fmt17h5a23a411a1205e15E
libvulkan_nouveau.so:_ZN77_$LT$std..sys..pal..unix..net..Socket$u20$as$u20$std..os..fd..owned..AsFd$GT$5as_fd17hba0db020fb756babE
libvulkan_nouveau.so:_ZN77_$LT$std..sys..pal..unix..thread..Thread$u20$as$u20$core..ops..drop..Drop$GT$4drop17hf676cbb762f1e553E
libvulkan_nouveau.so:_ZN77_$LT$std..sys_common..wtf8..Wtf8Buf$u20$as$u20$core..ops..deref..DerefMut$GT$9deref_mut17h86c6b2cb38f472b4E
libvulkan_nouveau.so:_ZN78_$LT$$LP$$RF$str$C$u16$RP$$u20$as$u20$std..net..socket_addr..ToSocketAddrs$GT$15to_socket_addrs17h3a265f5f1c916339E
libvulkan_nouveau.so:_ZN78_$LT$alloc..string..String$u20$as$u20$std..net..socket_addr..ToSocketAddrs$GT$15to_socket_addrs17h475e13721176db40E
libvulkan_nouveau.so:_ZN78_$LT$core..error..Source$u20$as$u20$core..iter..traits..iterator..Iterator$GT$4next17h1f440610055fbeeaE
libvulkan_nouveau.so:_ZN78_$LT$core..ffi..c_str..FromBytesWithNulError$u20$as$u20$core..fmt..Display$GT$3fmt17h3d6cfa4a9172fc39E
libvulkan_nouveau.so:_ZN78_$LT$object..macho..FatArch32$u20$as$u20$object..read..macho..fat..FatArch$GT$10cpusubtype17hcbd5bf06c1172f3dE
libvulkan_nouveau.so:_ZN78_$LT$object..macho..FatArch32$u20$as$u20$object..read..macho..fat..FatArch$GT$4size17h01ece9e84e14f091E
libvulkan_nouveau.so:_ZN78_$LT$object..macho..FatArch32$u20$as$u20$object..read..macho..fat..FatArch$GT$5align17h23f72d0e1a210f17E
libvulkan_nouveau.so:_ZN78_$LT$object..macho..FatArch32$u20$as$u20$object..read..macho..fat..FatArch$GT$6offset17h1f0aabbfd1e1fdb1E
libvulkan_nouveau.so:_ZN78_$LT$object..macho..FatArch32$u20$as$u20$object..read..macho..fat..FatArch$GT$7cputype17ha7e818c75baf5634E
libvulkan_nouveau.so:_ZN78_$LT$object..macho..FatArch64$u20$as$u20$object..read..macho..fat..FatArch$GT$10cpusubtype17h0108be2bef5d5f7bE
libvulkan_nouveau.so:_ZN78_$LT$object..macho..FatArch64$u20$as$u20$object..read..macho..fat..FatArch$GT$4size17h0725d7522434f9d4E
libvulkan_nouveau.so:_ZN78_$LT$object..macho..FatArch64$u20$as$u20$object..read..macho..fat..FatArch$GT$5align17h1f6db40f55f63c8cE
libvulkan_nouveau.so:_ZN78_$LT$object..macho..FatArch64$u20$as$u20$object..read..macho..fat..FatArch$GT$6offset17ha127b84287da3cd1E
libvulkan_nouveau.so:_ZN78_$LT$object..macho..FatArch64$u20$as$u20$object..read..macho..fat..FatArch$GT$7cputype17h4100196ba5b5e642E
libvulkan_nouveau.so:_ZN78_$LT$std..os..linux..process..PidFd$u20$as$u20$std..os..fd..raw..FromRawFd$GT$11from_raw_fd17h6a13e5314f90a6f8E
libvulkan_nouveau.so:_ZN78_$LT$std..sys..pal..unix..fd..FileDesc$u20$as$u20$std..os..fd..owned..AsFd$GT$5as_fd17ha1ef3f5807aca28dE
libvulkan_nouveau.so:_ZN78_$LT$std..sys..pal..unix..os..JoinPathsError$u20$as$u20$core..fmt..Display$GT$3fmt17hee2600b80a87b2dfE
libvulkan_nouveau.so:_ZN79_$LT$alloc..string..Drain$u20$as$u20$core..iter..traits..iterator..Iterator$GT$9size_hint17hda497e344ae5d918E
libvulkan_nouveau.so:_ZN79_$LT$alloc..vec..Vec$LT$u8$GT$$u20$as$u20$std..io..copy..BufferedWriterSpec$GT$11buffer_size17h8e7efef013c8091cE
libvulkan_nouveau.so:_ZN79_$LT$core..ffi..c_str..FromBytesUntilNulError$u20$as$u20$core..fmt..Display$GT$3fmt17he7b7a0593357689aE
libvulkan_nouveau.so:_ZN79_$LT$core..result..Result$LT$T$C$E$GT$$u20$as$u20$core..ops..try_trait..Try$GT$6branch17h1216751d1dcd9c67E
libvulkan_nouveau.so:_ZN79_$LT$core..result..Result$LT$T$C$E$GT$$u20$as$u20$core..ops..try_trait..Try$GT$6branch17hbcb4899024d52a96E
libvulkan_nouveau.so:_ZN79_$LT$core..result..Result$LT$T$C$E$GT$$u20$as$u20$core..ops..try_trait..Try$GT$6branch17hc3f5a0a9475f606eE
libvulkan_nouveau.so:_ZN79_$LT$core..result..Result$LT$T$C$E$GT$$u20$as$u20$core..ops..try_trait..Try$GT$6branch17hf5e04c96556d56adE
libvulkan_nouveau.so:_ZN79_$LT$object..xcoff..Symbol32$u20$as$u20$object..read..xcoff..symbol..Symbol$GT$11name_offset17ha161fb20dac601b0E
libvulkan_nouveau.so:_ZN79_$LT$object..xcoff..Symbol32$u20$as$u20$object..read..xcoff..symbol..Symbol$GT$6n_type17hd8e5a529f9b93746E
libvulkan_nouveau.so:_ZN79_$LT$object..xcoff..Symbol32$u20$as$u20$object..read..xcoff..symbol..Symbol$GT$7n_scnum17h249766f4c87b3997E
libvulkan_nouveau.so:_ZN79_$LT$object..xcoff..Symbol32$u20$as$u20$object..read..xcoff..symbol..Symbol$GT$7n_value17h93e3ec42b25ab71fE
libvulkan_nouveau.so:_ZN79_$LT$object..xcoff..Symbol64$u20$as$u20$object..read..xcoff..symbol..Symbol$GT$11name_offset17h2c92dcdbefffbb56E
libvulkan_nouveau.so:_ZN79_$LT$object..xcoff..Symbol64$u20$as$u20$object..read..xcoff..symbol..Symbol$GT$6n_type17hb17bb1e5f34aabcdE
libvulkan_nouveau.so:_ZN79_$LT$object..xcoff..Symbol64$u20$as$u20$object..read..xcoff..symbol..Symbol$GT$7n_scnum17h451fd235c908cc96E
libvulkan_nouveau.so:_ZN79_$LT$object..xcoff..Symbol64$u20$as$u20$object..read..xcoff..symbol..Symbol$GT$7n_value17h7d391fe12177b25cE
libvulkan_nouveau.so:_ZN79_$LT$std..backtrace_rs..symbolize..SymbolName$u20$as$u20$core..fmt..Display$GT$3fmt17h510a2498572e38afE
libvulkan_nouveau.so:_ZN79_$LT$std..env..SplitPaths$u20$as$u20$core..iter..traits..iterator..Iterator$GT$4next17h8b04b4cf620b1dd0E
libvulkan_nouveau.so:_ZN79_$LT$std..os..unix..net..datagram..UnixDatagram$u20$as$u20$core..fmt..Debug$GT$3fmt17hfafa23c730f49aa4E
libvulkan_nouveau.so:_ZN79_$LT$std..os..unix..net..listener..UnixListener$u20$as$u20$core..fmt..Debug$GT$3fmt17h7614f7595c0bc6bdE
libvulkan_nouveau.so:_ZN79_$LT$std..random..DefaultRandomSource$u20$as$u20$core..random..RandomSource$GT$10fill_bytes17h2a179060b2b36326E
libvulkan_nouveau.so:_ZN7bitview17u64_mask_for_bits17hc996c580b3a0c5c4E
libvulkan_nouveau.so:_ZN80_$LT$$RF$std..fs..File$u20$as$u20$std..sys..pal..unix..kernel_copy..CopyRead$GT$10properties17h086f0ea11ae36862E
libvulkan_nouveau.so:_ZN80_$LT$alloc..vec..Vec$LT$u8$GT$$u20$as$u20$core..convert..From$LT$$RF$str$GT$$GT$4from17h46f9aa993bbb93baE
libvulkan_nouveau.so:_ZN80_$LT$std..path..Components$u20$as$u20$core..iter..traits..iterator..Iterator$GT$4next17h8df29314c897e0a6E
libvulkan_nouveau.so:_ZN80_$LT$std..sys..pal..unix..net..Socket$u20$as$u20$std..os..fd..raw..FromRawFd$GT$11from_raw_fd17h7f8c4fb60d229aa8E
libvulkan_nouveau.so:_ZN80_$LT$std..sys..pal..unix..pipe..AnonPipe$u20$as$u20$std..os..fd..owned..AsFd$GT$5as_fd17h10a96cad82f9c7ceE
libvulkan_nouveau.so:_ZN81_$LT$$RF$$u5b$u8$u5d$$u20$as$u20$alloc..ffi..c_str..CString..new..SpecNewImpl$GT$13spec_new_impl17ha69f360d47c8cc80E
libvulkan_nouveau.so:_ZN81_$LT$$RF$std..fs..File$u20$as$u20$std..sys..pal..unix..kernel_copy..CopyWrite$GT$10properties17hd10be96c8b1ade5fE
libvulkan_nouveau.so:_ZN81_$LT$alloc..string..Drain$u20$as$u20$core..convert..AsRef$LT$$u5b$u8$u5d$$GT$$GT$6as_ref17h439da9de595d8090E
libvulkan_nouveau.so:_ZN81_$LT$alloc..vec..Vec$LT$T$C$A$GT$$u20$as$u20$core..ops..index..Index$LT$I$GT$$GT$5index17h8f1fdaf2f5750682E
libvulkan_nouveau.so:_ZN81_$LT$std..io..buffered..bufwriter..WriterPanicked$u20$as$u20$core..fmt..Debug$GT$3fmt17h5162b3a490895789E
libvulkan_nouveau.so:_ZN81_$LT$std..sys..pal..unix..fd..FileDesc$u20$as$u20$std..os..fd..raw..FromRawFd$GT$11from_raw_fd17h05cf8fc15f4f8350E
libvulkan_nouveau.so:_ZN82_$LT$core..char..ToLowercase$u20$as$u20$core..iter..traits..iterator..Iterator$GT$10advance_by17h8fdb0689b97cf14dE
libvulkan_nouveau.so:_ZN82_$LT$core..char..ToLowercase$u20$as$u20$core..iter..traits..iterator..Iterator$GT$4last17h49084b24b271defaE
libvulkan_nouveau.so:_ZN82_$LT$core..char..ToLowercase$u20$as$u20$core..iter..traits..iterator..Iterator$GT$4next17h658ec237e8647ae3E
libvulkan_nouveau.so:_ZN82_$LT$core..char..ToLowercase$u20$as$u20$core..iter..traits..iterator..Iterator$GT$5count17hcfb36c347aaa9b2cE
libvulkan_nouveau.so:_ZN82_$LT$core..char..ToUppercase$u20$as$u20$core..iter..traits..iterator..Iterator$GT$10advance_by17h3f5a16f3be215507E
libvulkan_nouveau.so:_ZN82_$LT$core..char..ToUppercase$u20$as$u20$core..iter..traits..iterator..Iterator$GT$4last17h61e706fd23dff245E
libvulkan_nouveau.so:_ZN82_$LT$core..char..ToUppercase$u20$as$u20$core..iter..traits..iterator..Iterator$GT$4next17hcf2e8c995d07ca2bE
libvulkan_nouveau.so:_ZN82_$LT$core..char..ToUppercase$u20$as$u20$core..iter..traits..iterator..Iterator$GT$5count17h483e93a1fbb54ee4E
libvulkan_nouveau.so:_ZN82_$LT$dyn$u20$core..any..Any$u2b$core..marker..Send$u20$as$u20$core..fmt..Debug$GT$3fmt17h97e5622e76298d4fE
libvulkan_nouveau.so:_ZN82_$LT$std..net..tcp..Incoming$u20$as$u20$core..iter..traits..iterator..Iterator$GT$4next17ha935c239617f7d25E
libvulkan_nouveau.so:_ZN82_$LT$std..sys..pal..unix..fs..cfm..CachedFileMetadata$u20$as$u20$std..io..Read$GT$11read_to_end17h271a154d3a744237E
libvulkan_nouveau.so:_ZN82_$LT$std..sys..pal..unix..fs..cfm..CachedFileMetadata$u20$as$u20$std..io..Read$GT$13read_vectored17h02ade19601677da8E
libvulkan_nouveau.so:_ZN82_$LT$std..sys..pal..unix..fs..cfm..CachedFileMetadata$u20$as$u20$std..io..Read$GT$14read_to_string17h9764c6dd3a458e29E
libvulkan_nouveau.so:_ZN82_$LT$std..sys..pal..unix..fs..cfm..CachedFileMetadata$u20$as$u20$std..io..Read$GT$4read17h64245838eb70923eE
libvulkan_nouveau.so:_ZN82_$LT$std..sys..pal..unix..fs..cfm..CachedFileMetadata$u20$as$u20$std..io..Read$GT$8read_buf17hfd9725163eeddb27E
libvulkan_nouveau.so:_ZN83_$LT$object..xcoff..AuxHeader32$u20$as$u20$object..read..xcoff..file..AuxHeader$GT$10o_algndata17h48cadb3e268e813aE
libvulkan_nouveau.so:_ZN83_$LT$object..xcoff..AuxHeader32$u20$as$u20$object..read..xcoff..file..AuxHeader$GT$10o_algntext17h42fe836a8a506c07E
libvulkan_nouveau.so:_ZN83_$LT$object..xcoff..AuxHeader32$u20$as$u20$object..read..xcoff..file..AuxHeader$GT$10o_debugger17h3f2616a196079780E
libvulkan_nouveau.so:_ZN83_$LT$object..xcoff..AuxHeader32$u20$as$u20$object..read..xcoff..file..AuxHeader$GT$10o_maxstack17hfc3bfef3f56d6744E
libvulkan_nouveau.so:_ZN83_$LT$object..xcoff..AuxHeader32$u20$as$u20$object..read..xcoff..file..AuxHeader$GT$10o_snloader17hc0b0a077fd2b93a6E
libvulkan_nouveau.so:_ZN83_$LT$object..xcoff..AuxHeader32$u20$as$u20$object..read..xcoff..file..AuxHeader$GT$12o_data_start17hba51f10880e48c2bE
libvulkan_nouveau.so:_ZN83_$LT$object..xcoff..AuxHeader32$u20$as$u20$object..read..xcoff..file..AuxHeader$GT$12o_text_start17hae5fc29086032fcbE
libvulkan_nouveau.so:_ZN83_$LT$object..xcoff..AuxHeader32$u20$as$u20$object..read..xcoff..file..AuxHeader$GT$5o_toc17had57a840cc3a8870E
libvulkan_nouveau.so:_ZN83_$LT$object..xcoff..AuxHeader32$u20$as$u20$object..read..xcoff..file..AuxHeader$GT$7o_bsize17h92d0f7e61a7c128fE
libvulkan_nouveau.so:_ZN83_$LT$object..xcoff..AuxHeader32$u20$as$u20$object..read..xcoff..file..AuxHeader$GT$7o_dsize17hf1580dd319d10594E
libvulkan_nouveau.so:_ZN83_$LT$object..xcoff..AuxHeader32$u20$as$u20$object..read..xcoff..file..AuxHeader$GT$7o_entry17h47c19c08e640020eE
libvulkan_nouveau.so:_ZN83_$LT$object..xcoff..AuxHeader32$u20$as$u20$object..read..xcoff..file..AuxHeader$GT$7o_mflag17h2290f1be14ccb75aE
libvulkan_nouveau.so:_ZN83_$LT$object..xcoff..AuxHeader32$u20$as$u20$object..read..xcoff..file..AuxHeader$GT$7o_snbss17h6f58adc9b229f12dE
libvulkan_nouveau.so:_ZN83_$LT$object..xcoff..AuxHeader32$u20$as$u20$object..read..xcoff..file..AuxHeader$GT$7o_sntoc17hbd09f5b99558ac31E
libvulkan_nouveau.so:_ZN83_$LT$object..xcoff..AuxHeader32$u20$as$u20$object..read..xcoff..file..AuxHeader$GT$7o_tsize17h35622b3a951f8c43E
libvulkan_nouveau.so:_ZN83_$LT$object..xcoff..AuxHeader32$u20$as$u20$object..read..xcoff..file..AuxHeader$GT$8o_sndata17h749ff504040728cdE
libvulkan_nouveau.so:_ZN83_$LT$object..xcoff..AuxHeader32$u20$as$u20$object..read..xcoff..file..AuxHeader$GT$8o_sntbss17h0a3dc30e3ed5b94dE
libvulkan_nouveau.so:_ZN83_$LT$object..xcoff..AuxHeader32$u20$as$u20$object..read..xcoff..file..AuxHeader$GT$8o_sntext17h4761d1733da10da4E
libvulkan_nouveau.so:_ZN83_$LT$object..xcoff..AuxHeader32$u20$as$u20$object..read..xcoff..file..AuxHeader$GT$8o_vstamp17hd156b6d4fca1961dE
libvulkan_nouveau.so:_ZN83_$LT$object..xcoff..AuxHeader32$u20$as$u20$object..read..xcoff..file..AuxHeader$GT$9o_maxdata17hcc9f0135a66bb8a5E
libvulkan_nouveau.so:_ZN83_$LT$object..xcoff..AuxHeader32$u20$as$u20$object..read..xcoff..file..AuxHeader$GT$9o_modtype17h192a580a4fb096a6E
libvulkan_nouveau.so:_ZN83_$LT$object..xcoff..AuxHeader32$u20$as$u20$object..read..xcoff..file..AuxHeader$GT$9o_snentry17hd821756e5a61e0e3E
libvulkan_nouveau.so:_ZN83_$LT$object..xcoff..AuxHeader32$u20$as$u20$object..read..xcoff..file..AuxHeader$GT$9o_sntdata17h5266717a52264399E
libvulkan_nouveau.so:_ZN83_$LT$object..xcoff..AuxHeader64$u20$as$u20$object..read..xcoff..file..AuxHeader$GT$10o_algndata17h9f03840506ae3dbaE
libvulkan_nouveau.so:_ZN83_$LT$object..xcoff..AuxHeader64$u20$as$u20$object..read..xcoff..file..AuxHeader$GT$10o_algntext17hc7ef9f8fd2d63f2aE
libvulkan_nouveau.so:_ZN83_$LT$object..xcoff..AuxHeader64$u20$as$u20$object..read..xcoff..file..AuxHeader$GT$10o_debugger17hced80b8733782e15E
libvulkan_nouveau.so:_ZN83_$LT$object..xcoff..AuxHeader64$u20$as$u20$object..read..xcoff..file..AuxHeader$GT$10o_maxstack17hd506e1a8c9242f7aE
libvulkan_nouveau.so:_ZN83_$LT$object..xcoff..AuxHeader64$u20$as$u20$object..read..xcoff..file..AuxHeader$GT$10o_snloader17h09667c2696ba99a7E
libvulkan_nouveau.so:_ZN83_$LT$object..xcoff..AuxHeader64$u20$as$u20$object..read..xcoff..file..AuxHeader$GT$10o_x64flags17h1c66e257fb0a1491E
libvulkan_nouveau.so:_ZN83_$LT$object..xcoff..AuxHeader64$u20$as$u20$object..read..xcoff..file..AuxHeader$GT$12o_data_start17he806c3f0cdfc054bE
libvulkan_nouveau.so:_ZN83_$LT$object..xcoff..AuxHeader64$u20$as$u20$object..read..xcoff..file..AuxHeader$GT$12o_text_start17h4ffa5a584b4d3398E
libvulkan_nouveau.so:_ZN83_$LT$object..xcoff..AuxHeader64$u20$as$u20$object..read..xcoff..file..AuxHeader$GT$5o_toc17hb8aa598eb6e0a5aaE
libvulkan_nouveau.so:_ZN83_$LT$object..xcoff..AuxHeader64$u20$as$u20$object..read..xcoff..file..AuxHeader$GT$7o_bsize17h1b42e0943fc014a3E
libvulkan_nouveau.so:_ZN83_$LT$object..xcoff..AuxHeader64$u20$as$u20$object..read..xcoff..file..AuxHeader$GT$7o_dsize17hd07ec334a05f7daeE
libvulkan_nouveau.so:_ZN83_$LT$object..xcoff..AuxHeader64$u20$as$u20$object..read..xcoff..file..AuxHeader$GT$7o_entry17h8c4dbb6c2967f124E
libvulkan_nouveau.so:_ZN83_$LT$object..xcoff..AuxHeader64$u20$as$u20$object..read..xcoff..file..AuxHeader$GT$7o_mflag17hee2c049336a528daE
libvulkan_nouveau.so:_ZN83_$LT$object..xcoff..AuxHeader64$u20$as$u20$object..read..xcoff..file..AuxHeader$GT$7o_snbss17h7deabc7de5e126d7E
libvulkan_nouveau.so:_ZN83_$LT$object..xcoff..AuxHeader64$u20$as$u20$object..read..xcoff..file..AuxHeader$GT$7o_sntoc17h7abf4157620ae121E
libvulkan_nouveau.so:_ZN83_$LT$object..xcoff..AuxHeader64$u20$as$u20$object..read..xcoff..file..AuxHeader$GT$7o_tsize17h78c724696da52960E
libvulkan_nouveau.so:_ZN83_$LT$object..xcoff..AuxHeader64$u20$as$u20$object..read..xcoff..file..AuxHeader$GT$8o_sndata17h0bf068ab7bec5149E
libvulkan_nouveau.so:_ZN83_$LT$object..xcoff..AuxHeader64$u20$as$u20$object..read..xcoff..file..AuxHeader$GT$8o_sntbss17hac630610f101bb5bE
libvulkan_nouveau.so:_ZN83_$LT$object..xcoff..AuxHeader64$u20$as$u20$object..read..xcoff..file..AuxHeader$GT$8o_sntext17hba7697b955b6ba75E
libvulkan_nouveau.so:_ZN83_$LT$object..xcoff..AuxHeader64$u20$as$u20$object..read..xcoff..file..AuxHeader$GT$8o_vstamp17h0cec0567550a199dE
libvulkan_nouveau.so:_ZN83_$LT$object..xcoff..AuxHeader64$u20$as$u20$object..read..xcoff..file..AuxHeader$GT$9o_maxdata17hbcf607e6d4d85b96E
libvulkan_nouveau.so:_ZN83_$LT$object..xcoff..AuxHeader64$u20$as$u20$object..read..xcoff..file..AuxHeader$GT$9o_modtype17h48e3f8fbc21b2bdeE
libvulkan_nouveau.so:_ZN83_$LT$object..xcoff..AuxHeader64$u20$as$u20$object..read..xcoff..file..AuxHeader$GT$9o_snentry17h1151e6bb09b49847E
libvulkan_nouveau.so:_ZN83_$LT$object..xcoff..AuxHeader64$u20$as$u20$object..read..xcoff..file..AuxHeader$GT$9o_sntdata17h8ab8621794aaae91E
libvulkan_nouveau.so:_ZN83_$LT$object..xcoff..CsectAux32$u20$as$u20$object..read..xcoff..symbol..CsectAux$GT$10x_parmhash17he121d9f1097baa85E
libvulkan_nouveau.so:_ZN83_$LT$object..xcoff..CsectAux32$u20$as$u20$object..read..xcoff..symbol..CsectAux$GT$6x_stab17h16aa5ca1dac11e5eE
libvulkan_nouveau.so:_ZN83_$LT$object..xcoff..CsectAux32$u20$as$u20$object..read..xcoff..symbol..CsectAux$GT$8x_scnlen17h7e3299db6895f67eE
libvulkan_nouveau.so:_ZN83_$LT$object..xcoff..CsectAux32$u20$as$u20$object..read..xcoff..symbol..CsectAux$GT$8x_snhash17hcf147b7663c622b5E
libvulkan_nouveau.so:_ZN83_$LT$object..xcoff..CsectAux32$u20$as$u20$object..read..xcoff..symbol..CsectAux$GT$8x_snstab17h597858120648ad09E
libvulkan_nouveau.so:_ZN83_$LT$object..xcoff..CsectAux64$u20$as$u20$object..read..xcoff..symbol..CsectAux$GT$10x_parmhash17hd712b5e67444f819E
libvulkan_nouveau.so:_ZN83_$LT$object..xcoff..CsectAux64$u20$as$u20$object..read..xcoff..symbol..CsectAux$GT$8x_scnlen17h4059cc56aa950398E
libvulkan_nouveau.so:_ZN83_$LT$object..xcoff..CsectAux64$u20$as$u20$object..read..xcoff..symbol..CsectAux$GT$8x_snhash17he11f8cef3dba534aE
libvulkan_nouveau.so:_ZN83_$LT$std..io..buffered..bufwriter..WriterPanicked$u20$as$u20$core..fmt..Display$GT$3fmt17hb10b4aa409d9b909E
libvulkan_nouveau.so:_ZN83_$LT$std..sys..pal..unix..fs..cfm..CachedFileMetadata$u20$as$u20$std..io..Write$GT$14write_vectored17h7c6653bf696d9ef7E
libvulkan_nouveau.so:_ZN83_$LT$std..sys..pal..unix..fs..cfm..CachedFileMetadata$u20$as$u20$std..io..Write$GT$5write17h865393ccbce4cd3aE
libvulkan_nouveau.so:_ZN83_$LT$std..sys..pal..unix..pipe..AnonPipe$u20$as$u20$std..os..fd..raw..FromRawFd$GT$11from_raw_fd17h208c742820ceeffcE
libvulkan_nouveau.so:_ZN84_$LT$alloc..vec..Vec$LT$T$C$A$GT$$u20$as$u20$core..ops..index..IndexMut$LT$I$GT$$GT$9index_mut17hd85e15aa32a6a2bcE
libvulkan_nouveau.so:_ZN84_$LT$core..num..nonzero..NonZero$LT$i8$GT$$u20$as$u20$core..str..traits..FromStr$GT$8from_str17hfef4030052d03cfbE
libvulkan_nouveau.so:_ZN84_$LT$core..num..nonzero..NonZero$LT$u8$GT$$u20$as$u20$core..str..traits..FromStr$GT$8from_str17h6b5318fb2b77637bE
libvulkan_nouveau.so:_ZN84_$LT$core..panicking..assert_matches_failed..Pattern$u20$as$u20$core..fmt..Debug$GT$3fmt17h4833e959334ba69aE
libvulkan_nouveau.so:_ZN84_$LT$std..env..Args$u20$as$u20$core..iter..traits..exact_size..ExactSizeIterator$GT$3len17hd74bc06595d96370E
libvulkan_nouveau.so:_ZN84_$LT$std..env..Args$u20$as$u20$core..iter..traits..exact_size..ExactSizeIterator$GT$8is_empty17ha392b6b275786481E
libvulkan_nouveau.so:_ZN84_$LT$std..process..CommandArgs$u20$as$u20$core..iter..traits..iterator..Iterator$GT$4next17hf0e51c1097baa973E
libvulkan_nouveau.so:_ZN84_$LT$std..process..CommandArgs$u20$as$u20$core..iter..traits..iterator..Iterator$GT$9size_hint17hea70b5db1c33277aE
libvulkan_nouveau.so:_ZN85_$LT$core..num..nonzero..NonZero$LT$i16$GT$$u20$as$u20$core..str..traits..FromStr$GT$8from_str17h10df075382f98ccfE
libvulkan_nouveau.so:_ZN85_$LT$core..num..nonzero..NonZero$LT$i32$GT$$u20$as$u20$core..str..traits..FromStr$GT$8from_str17had4ec33717d87da7E
libvulkan_nouveau.so:_ZN85_$LT$core..num..nonzero..NonZero$LT$i64$GT$$u20$as$u20$core..str..traits..FromStr$GT$8from_str17ha2a410dada068108E
libvulkan_nouveau.so:_ZN85_$LT$core..num..nonzero..NonZero$LT$u16$GT$$u20$as$u20$core..str..traits..FromStr$GT$8from_str17h9cb5069d7ce7cf5bE
libvulkan_nouveau.so:_ZN85_$LT$core..num..nonzero..NonZero$LT$u32$GT$$u20$as$u20$core..str..traits..FromStr$GT$8from_str17h0bf6cf2e67d874b6E
libvulkan_nouveau.so:_ZN85_$LT$core..num..nonzero..NonZero$LT$u64$GT$$u20$as$u20$core..str..traits..FromStr$GT$8from_str17hb1f2079e0c257d0aE
libvulkan_nouveau.so:_ZN85_$LT$object..xcoff..FileHeader32$u20$as$u20$object..read..xcoff..file..FileHeader$GT$7f_flags17h94e55a102c0d5fb9E
libvulkan_nouveau.so:_ZN85_$LT$object..xcoff..FileHeader32$u20$as$u20$object..read..xcoff..file..FileHeader$GT$7f_magic17hc2bf6162512caa9bE
libvulkan_nouveau.so:_ZN85_$LT$object..xcoff..FileHeader32$u20$as$u20$object..read..xcoff..file..FileHeader$GT$7f_nscns17h91b8dedb630b1e17E
libvulkan_nouveau.so:_ZN85_$LT$object..xcoff..FileHeader32$u20$as$u20$object..read..xcoff..file..FileHeader$GT$7f_nsyms17hb3c4f2c9c1ed240fE
libvulkan_nouveau.so:_ZN85_$LT$object..xcoff..FileHeader32$u20$as$u20$object..read..xcoff..file..FileHeader$GT$8f_opthdr17haaf18c58fb7f02deE
libvulkan_nouveau.so:_ZN85_$LT$object..xcoff..FileHeader32$u20$as$u20$object..read..xcoff..file..FileHeader$GT$8f_symptr17h98bf9b0596c46d16E
libvulkan_nouveau.so:_ZN85_$LT$object..xcoff..FileHeader32$u20$as$u20$object..read..xcoff..file..FileHeader$GT$8f_timdat17h83f06e3e0a94d126E
libvulkan_nouveau.so:_ZN85_$LT$object..xcoff..FileHeader64$u20$as$u20$object..read..xcoff..file..FileHeader$GT$7f_flags17hdf70fbaf06bf0210E
libvulkan_nouveau.so:_ZN85_$LT$object..xcoff..FileHeader64$u20$as$u20$object..read..xcoff..file..FileHeader$GT$7f_magic17hb66f50c56ecbeaa4E
libvulkan_nouveau.so:_ZN85_$LT$object..xcoff..FileHeader64$u20$as$u20$object..read..xcoff..file..FileHeader$GT$7f_nscns17hc7db55ec2e6e38b5E
libvulkan_nouveau.so:_ZN85_$LT$object..xcoff..FileHeader64$u20$as$u20$object..read..xcoff..file..FileHeader$GT$7f_nsyms17h8130592e3c9c9de6E
libvulkan_nouveau.so:_ZN85_$LT$object..xcoff..FileHeader64$u20$as$u20$object..read..xcoff..file..FileHeader$GT$8f_opthdr17h9cef85ff9510a591E
libvulkan_nouveau.so:_ZN85_$LT$object..xcoff..FileHeader64$u20$as$u20$object..read..xcoff..file..FileHeader$GT$8f_symptr17ha0b832772a007932E
libvulkan_nouveau.so:_ZN85_$LT$object..xcoff..FileHeader64$u20$as$u20$object..read..xcoff..file..FileHeader$GT$8f_timdat17h26c86eae150bed9aE
libvulkan_nouveau.so:_ZN85_$LT$std..backtrace_rs..backtrace..libunwind..Frame$u20$as$u20$core..clone..Clone$GT$5clone17h9f14bbe02db805bcE
libvulkan_nouveau.so:_ZN86_$LT$core..char..CaseMappingIter$u20$as$u20$core..iter..traits..iterator..Iterator$GT$10advance_by17h7518a301cf53c35fE
libvulkan_nouveau.so:_ZN86_$LT$core..char..CaseMappingIter$u20$as$u20$core..iter..traits..iterator..Iterator$GT$4last17hacb33a00040f186dE
libvulkan_nouveau.so:_ZN86_$LT$core..char..CaseMappingIter$u20$as$u20$core..iter..traits..iterator..Iterator$GT$4next17heb2f4f58560e2e6fE
libvulkan_nouveau.so:_ZN86_$LT$core..char..CaseMappingIter$u20$as$u20$core..iter..traits..iterator..Iterator$GT$5count17h45d8dfcd03fc94e7E
libvulkan_nouveau.so:_ZN86_$LT$core..num..nonzero..NonZero$LT$i128$GT$$u20$as$u20$core..str..traits..FromStr$GT$8from_str17h6fef4b7763b6ff62E
libvulkan_nouveau.so:_ZN86_$LT$core..num..nonzero..NonZero$LT$u128$GT$$u20$as$u20$core..str..traits..FromStr$GT$8from_str17h5fbdbc9dfc39eed1E
libvulkan_nouveau.so:_ZN86_$LT$std..env..ArgsOs$u20$as$u20$core..iter..traits..exact_size..ExactSizeIterator$GT$3len17h7ef2d1e6a91ecaa3E
libvulkan_nouveau.so:_ZN86_$LT$std..env..ArgsOs$u20$as$u20$core..iter..traits..exact_size..ExactSizeIterator$GT$8is_empty17hb9d1aecc43caea37E
libvulkan_nouveau.so:_ZN86_$LT$std..net..tcp..IntoIncoming$u20$as$u20$core..iter..traits..iterator..Iterator$GT$4next17hdb60df3faa6f1ec8E
libvulkan_nouveau.so:_ZN86_$LT$std..sys..pal..unix..stack_overflow..Handler$u20$as$u20$core..ops..drop..Drop$GT$4drop17h8179f97b43b4e0dbE
libvulkan_nouveau.so:_ZN86_$LT$std..sys..sync..once..futex..CompletionGuard$u20$as$u20$core..ops..drop..Drop$GT$4drop17hbf82bf7110416ccbE
libvulkan_nouveau.so:_ZN87_$LT$compiler..bitset..BitSetIter$u20$as$u20$core..iter..traits..iterator..Iterator$GT$4next17ha4d6da518408bc0fE
libvulkan_nouveau.so:_ZN87_$LT$core..num..nonzero..NonZero$LT$isize$GT$$u20$as$u20$core..str..traits..FromStr$GT$8from_str17hdee8a2fec774387fE
libvulkan_nouveau.so:_ZN87_$LT$core..num..nonzero..NonZero$LT$usize$GT$$u20$as$u20$core..str..traits..FromStr$GT$8from_str17h9ece89e2b92d8f03E
libvulkan_nouveau.so:_ZN87_$LT$core..str..lossy..Utf8Chunks$u20$as$u20$core..iter..traits..iterator..Iterator$GT$4next17h3454be4325dd57bbE
libvulkan_nouveau.so:_ZN87_$LT$std..backtrace_rs..backtrace..libunwind..Bomb$u20$as$u20$core..ops..drop..Drop$GT$4drop17h51aef4b11cc28153E
libvulkan_nouveau.so:_ZN87_$LT$std..net..tcp..TcpStream$u20$as$u20$std..os..net..linux_ext..tcp..TcpStreamExt$GT$11deferaccept17hc72324bd203b806bE
libvulkan_nouveau.so:_ZN87_$LT$std..net..tcp..TcpStream$u20$as$u20$std..os..net..linux_ext..tcp..TcpStreamExt$GT$12set_quickack17h991c15f9650bbe84E
libvulkan_nouveau.so:_ZN87_$LT$std..net..tcp..TcpStream$u20$as$u20$std..os..net..linux_ext..tcp..TcpStreamExt$GT$15set_deferaccept17h5afbccc53d5950fcE
libvulkan_nouveau.so:_ZN87_$LT$std..net..tcp..TcpStream$u20$as$u20$std..os..net..linux_ext..tcp..TcpStreamExt$GT$8quickack17hf81666c55a88a8e7E
libvulkan_nouveau.so:_ZN87_$LT$std..process..ExitStatusError$u20$as$u20$std..os..unix..process..ExitStatusExt$GT$8from_raw17hb66fb10f1a53e3edE
libvulkan_nouveau.so:_ZN87_$LT$std..sys..pal..unix..os..Env$u20$as$u20$core..iter..traits..iterator..Iterator$GT$4next17h97f70494ccaa0285E
libvulkan_nouveau.so:_ZN87_$LT$std..sys..pal..unix..os..Env$u20$as$u20$core..iter..traits..iterator..Iterator$GT$9size_hint17h8fb3aaeacebcd954E
libvulkan_nouveau.so:_ZN88_$LT$alloc..collections..btree..map..UnorderedKeyError$u20$as$u20$core..fmt..Display$GT$3fmt17h88802c4a9397f462E
libvulkan_nouveau.so:_ZN88_$LT$std..env..Args$u20$as$u20$core..iter..traits..double_ended..DoubleEndedIterator$GT$9next_back17h8ba32b7dedc420e3E
libvulkan_nouveau.so:_ZN88_$LT$std..io..stdio..StdinLock$u20$as$u20$std..sys..pal..unix..kernel_copy..CopyRead$GT$10properties17h4b82fa247d881652E
libvulkan_nouveau.so:_ZN88_$LT$std..sys..pal..unix..linux..pidfd..PidFd$u20$as$u20$std..os..fd..raw..FromRawFd$GT$11from_raw_fd17h1b30127bf76be4c9E
libvulkan_nouveau.so:_ZN88_$LT$std..time..Instant$u20$as$u20$core..ops..arith..Add$LT$core..time..Duration$GT$$GT$3add17h90edd8e5688dbc47E
libvulkan_nouveau.so:_ZN88_$LT$std..time..Instant$u20$as$u20$core..ops..arith..Sub$LT$core..time..Duration$GT$$GT$3sub17h45dc781569982604E
libvulkan_nouveau.so:_ZN89_$LT$$RF$mut$u20$$u5b$u8$u5d$$u20$as$u20$alloc..ffi..c_str..CString..new..SpecNewImpl$GT$13spec_new_impl17h0e9eeabe1cb60e07E
libvulkan_nouveau.so:_ZN89_$LT$core..ops..range..Range$LT$T$GT$$u20$as$u20$core..iter..range..RangeIteratorImpl$GT$9spec_next17h2c7f85e7fb7c1b77E
libvulkan_nouveau.so:_ZN89_$LT$std..backtrace_rs..symbolize..gimli..mmap..Mmap$u20$as$u20$core..ops..drop..Drop$GT$4drop17h1e2c7964954439f8E
libvulkan_nouveau.so:_ZN89_$LT$std..panicking..rust_panic_without_hook..RewrapBox$u20$as$u20$core..fmt..Display$GT$3fmt17h690d0c97797a4157E
libvulkan_nouveau.so:_ZN8compiler17nir_instr_printer15NirInstrPrinter15instr_to_string17hcda6243cf442b9f4E
libvulkan_nouveau.so:_ZN8compiler17nir_instr_printer15NirInstrPrinter3new17he999932278617c7cE
libvulkan_nouveau.so:_ZN8compiler3nir44_$LT$impl$u20$compiler..bindings..nir_if$GT$14iter_else_list17hde5b7dfe11fe9491E
libvulkan_nouveau.so:_ZN8compiler3nir44_$LT$impl$u20$compiler..bindings..nir_if$GT$14iter_then_list17ha277a77becda8c97E
libvulkan_nouveau.so:_ZN8compiler3nir44_$LT$impl$u20$compiler..bindings..nir_if$GT$15following_block17h280801af4895b7e7E
libvulkan_nouveau.so:_ZN8compiler3nir44_$LT$impl$u20$compiler..bindings..nir_if$GT$16first_else_block17ha980cf69c6227f88E
libvulkan_nouveau.so:_ZN8compiler3nir44_$LT$impl$u20$compiler..bindings..nir_if$GT$16first_then_block17h38f7af477635b1b6E
libvulkan_nouveau.so:_ZN8compiler3nir45_$LT$impl$u20$compiler..bindings..nir_def$GT$12parent_instr17hbf7f20c7f743639eE
libvulkan_nouveau.so:_ZN8compiler3nir45_$LT$impl$u20$compiler..bindings..nir_def$GT$15components_read17he4de066aad225a00E
libvulkan_nouveau.so:_ZN8compiler3nir45_$LT$impl$u20$compiler..bindings..nir_def$GT$17all_uses_are_fsat17hc6a06f0bc62be8adE
libvulkan_nouveau.so:_ZN8compiler3nir46_$LT$impl$u20$compiler..bindings..nir_loop$GT$11first_block17hd312ae4eab16eaf5E
libvulkan_nouveau.so:_ZN8compiler3nir46_$LT$impl$u20$compiler..bindings..nir_loop$GT$15following_block17h601d9bad742db39fE
libvulkan_nouveau.so:_ZN8compiler3nir46_$LT$impl$u20$compiler..bindings..nir_loop$GT$9iter_body17h87e7e1ae2a3461b9E
libvulkan_nouveau.so:_ZN8compiler3nir47_$LT$impl$u20$compiler..bindings..nir_block$GT$10successors17hfd217ee0b240e3e5E
libvulkan_nouveau.so:_ZN8compiler3nir47_$LT$impl$u20$compiler..bindings..nir_block$GT$12following_if17hb21d65b5f92168d3E
libvulkan_nouveau.so:_ZN8compiler3nir47_$LT$impl$u20$compiler..bindings..nir_block$GT$14following_loop17h98daac7beeba41faE
libvulkan_nouveau.so:_ZN8compiler3nir47_$LT$impl$u20$compiler..bindings..nir_block$GT$15iter_instr_list17h7767b1a385c6013fE
libvulkan_nouveau.so:_ZN8compiler3nir47_$LT$impl$u20$compiler..bindings..nir_block$GT$6parent17h4ba1c06a1b9208b5E
libvulkan_nouveau.so:_ZN8compiler3nir47_$LT$impl$u20$compiler..bindings..nir_instr$GT$12as_intrinsic17h9fe20e33d0919481E
libvulkan_nouveau.so:_ZN8compiler3nir47_$LT$impl$u20$compiler..bindings..nir_instr$GT$13as_load_const17h73f97ba7b7463891E
libvulkan_nouveau.so:_ZN8compiler3nir47_$LT$impl$u20$compiler..bindings..nir_instr$GT$3def17h9846447ea5f7179dE
libvulkan_nouveau.so:_ZN8compiler3nir47_$LT$impl$u20$compiler..bindings..nir_instr$GT$6as_alu17h1fb5caa92b31138eE
libvulkan_nouveau.so:_ZN8compiler3nir47_$LT$impl$u20$compiler..bindings..nir_instr$GT$6as_phi17h28c7feced09dd87dE
libvulkan_nouveau.so:_ZN8compiler3nir47_$LT$impl$u20$compiler..bindings..nir_instr$GT$6as_tex17h11d10ef6db374da4E
libvulkan_nouveau.so:_ZN8compiler3nir47_$LT$impl$u20$compiler..bindings..nir_instr$GT$7as_jump17h937518df035c2e22E
libvulkan_nouveau.so:_ZN8compiler3nir47_$LT$impl$u20$compiler..bindings..nir_instr$GT$8as_undef17h2ce1f2ee08c5a1cfE
libvulkan_nouveau.so:_ZN8compiler3nir48_$LT$impl$u20$compiler..bindings..nir_shader$GT$14iter_functions17h896a8b61f07ab69dE
libvulkan_nouveau.so:_ZN8compiler3nir48_$LT$impl$u20$compiler..bindings..nir_shader$GT$14iter_variables17h102e07aa593496a6E
libvulkan_nouveau.so:_ZN8compiler3nir49_$LT$impl$u20$compiler..bindings..nir_alu_src$GT$11comp_as_int17h3eefdec4c04e31e7E
libvulkan_nouveau.so:_ZN8compiler3nir49_$LT$impl$u20$compiler..bindings..nir_alu_src$GT$12comp_as_uint17hd00d40df8f816afaE
libvulkan_nouveau.so:_ZN8compiler3nir49_$LT$impl$u20$compiler..bindings..nir_alu_src$GT$8bit_size17h28538e2a9c22ab4dE
libvulkan_nouveau.so:_ZN8compiler3nir49_$LT$impl$u20$compiler..bindings..nir_cf_node$GT$4next17h7ec47a05a06574c2E
libvulkan_nouveau.so:_ZN8compiler3nir49_$LT$impl$u20$compiler..bindings..nir_cf_node$GT$4prev17heaff09768a9c460bE
libvulkan_nouveau.so:_ZN8compiler3nir49_$LT$impl$u20$compiler..bindings..nir_cf_node$GT$5as_if17hd1cbfc988bab9674E
libvulkan_nouveau.so:_ZN8compiler3nir49_$LT$impl$u20$compiler..bindings..nir_cf_node$GT$6parent17h47427f738cf6aad4E
libvulkan_nouveau.so:_ZN8compiler3nir49_$LT$impl$u20$compiler..bindings..nir_cf_node$GT$7as_loop17hafa92cb0d5b2195cE
libvulkan_nouveau.so:_ZN8compiler3nir49_$LT$impl$u20$compiler..bindings..nir_cf_node$GT$8as_block17h0641980680465c49E
libvulkan_nouveau.so:_ZN8compiler3nir49_$LT$impl$u20$compiler..bindings..nir_op_info$GT$4name17h391e36168dcaf2faE
libvulkan_nouveau.so:_ZN8compiler3nir49_$LT$impl$u20$compiler..bindings..nir_phi_src$GT$4pred17hf0225607deaf50baE
libvulkan_nouveau.so:_ZN8compiler3nir50_$LT$impl$u20$compiler..bindings..nir_function$GT$8get_impl17h7ff677acb6d605b6E
libvulkan_nouveau.so:_ZN8compiler3nir51_$LT$impl$u20$compiler..bindings..nir_alu_instr$GT$13srcs_as_slice17h71c3fbeba7b4a6e3E
libvulkan_nouveau.so:_ZN8compiler3nir51_$LT$impl$u20$compiler..bindings..nir_alu_instr$GT$14src_components17h2882912e929f596bE
libvulkan_nouveau.so:_ZN8compiler3nir51_$LT$impl$u20$compiler..bindings..nir_alu_instr$GT$4info17hd147c3dfd4b31dd5E
libvulkan_nouveau.so:_ZN8compiler3nir51_$LT$impl$u20$compiler..bindings..nir_alu_instr$GT$7get_src17h4b7549722f1409c3E
libvulkan_nouveau.so:_ZN8compiler3nir51_$LT$impl$u20$compiler..bindings..nir_phi_instr$GT$9iter_srcs17h5b00010e67a9d5c6E
libvulkan_nouveau.so:_ZN8compiler3nir51_$LT$impl$u20$compiler..bindings..nir_tex_instr$GT$13srcs_as_slice17haf71d6794f0d55a8E
libvulkan_nouveau.so:_ZN8compiler3nir51_$LT$impl$u20$compiler..bindings..nir_tex_instr$GT$7get_src17h82774336c019e769E
libvulkan_nouveau.so:_ZN8compiler3nir52_$LT$impl$u20$compiler..bindings..nir_jump_instr$GT$11else_target17hf16e1cfd5265c305E
libvulkan_nouveau.so:_ZN8compiler3nir52_$LT$impl$u20$compiler..bindings..nir_jump_instr$GT$6target17hb15dcfad78884dbaE
libvulkan_nouveau.so:_ZN8compiler3nir55_$LT$impl$u20$compiler..bindings..nir_function_impl$GT$8function17hd967e957aa00e085E
libvulkan_nouveau.so:_ZN8compiler3nir55_$LT$impl$u20$compiler..bindings..nir_function_impl$GT$9end_block17hdc850ac95f84b6d2E
libvulkan_nouveau.so:_ZN8compiler3nir55_$LT$impl$u20$compiler..bindings..nir_function_impl$GT$9iter_body17hf184f979698d3f88E
libvulkan_nouveau.so:_ZN8compiler3nir56_$LT$impl$u20$compiler..bindings..nir_intrinsic_info$GT$4name17h07e12dda26b1b837E
libvulkan_nouveau.so:_ZN8compiler3nir57_$LT$impl$u20$compiler..bindings..nir_intrinsic_instr$GT$10range_base17h2f5e8b83737bc314E
libvulkan_nouveau.so:_ZN8compiler3nir57_$LT$impl$u20$compiler..bindings..nir_intrinsic_instr$GT$10write_mask17h66ff566d02143d93E
libvulkan_nouveau.so:_ZN8compiler3nir57_$LT$impl$u20$compiler..bindings..nir_intrinsic_instr$GT$11image_array17he2175de1bb2f5e23E
libvulkan_nouveau.so:_ZN8compiler3nir57_$LT$impl$u20$compiler..bindings..nir_intrinsic_instr$GT$11interp_mode17h920f0c9e0ee7a09eE
libvulkan_nouveau.so:_ZN8compiler3nir57_$LT$impl$u20$compiler..bindings..nir_intrinsic_instr$GT$12align_offset17h923ccb7e302eff16E
libvulkan_nouveau.so:_ZN8compiler3nir57_$LT$impl$u20$compiler..bindings..nir_intrinsic_instr$GT$12cluster_size17h1c9c1c0be1159030E
libvulkan_nouveau.so:_ZN8compiler3nir57_$LT$impl$u20$compiler..bindings..nir_intrinsic_instr$GT$12memory_modes17he81e00aa0e21cbb2E
libvulkan_nouveau.so:_ZN8compiler3nir57_$LT$impl$u20$compiler..bindings..nir_intrinsic_instr$GT$12memory_scope17hbf3c60e9d7d983b5E
libvulkan_nouveau.so:_ZN8compiler3nir57_$LT$impl$u20$compiler..bindings..nir_intrinsic_instr$GT$12reduction_op17h04a69e66db14bc17E
libvulkan_nouveau.so:_ZN8compiler3nir57_$LT$impl$u20$compiler..bindings..nir_intrinsic_instr$GT$13srcs_as_slice17h3b6570393b562bddE
libvulkan_nouveau.so:_ZN8compiler3nir57_$LT$impl$u20$compiler..bindings..nir_intrinsic_instr$GT$15execution_scope17h9b5d48a7c4334f9eE
libvulkan_nouveau.so:_ZN8compiler3nir57_$LT$impl$u20$compiler..bindings..nir_intrinsic_instr$GT$15get_const_index17h3f527d8af86c3547E
libvulkan_nouveau.so:_ZN8compiler3nir57_$LT$impl$u20$compiler..bindings..nir_intrinsic_instr$GT$16memory_semantics17hda61183afb87122aE
libvulkan_nouveau.so:_ZN8compiler3nir57_$LT$impl$u20$compiler..bindings..nir_intrinsic_instr$GT$4base17h0c89d8e277883ba5E
libvulkan_nouveau.so:_ZN8compiler3nir57_$LT$impl$u20$compiler..bindings..nir_intrinsic_instr$GT$4info17h5cea276ce0f13d27E
libvulkan_nouveau.so:_ZN8compiler3nir57_$LT$impl$u20$compiler..bindings..nir_intrinsic_instr$GT$5align17he800f6f5a57f8654E
libvulkan_nouveau.so:_ZN8compiler3nir57_$LT$impl$u20$compiler..bindings..nir_intrinsic_instr$GT$5flags17h33957df0ed75af42E
libvulkan_nouveau.so:_ZN8compiler3nir57_$LT$impl$u20$compiler..bindings..nir_intrinsic_instr$GT$5range17h82df3f61c4cc680bE
libvulkan_nouveau.so:_ZN8compiler3nir57_$LT$impl$u20$compiler..bindings..nir_intrinsic_instr$GT$6access17h4b86a698ddeb5f6cE
libvulkan_nouveau.so:_ZN8compiler3nir57_$LT$impl$u20$compiler..bindings..nir_intrinsic_instr$GT$7get_src17h9a8eae90bdcaa6d1E
libvulkan_nouveau.so:_ZN8compiler3nir57_$LT$impl$u20$compiler..bindings..nir_intrinsic_instr$GT$9align_mul17h4669d23ee4fb0e72E
libvulkan_nouveau.so:_ZN8compiler3nir57_$LT$impl$u20$compiler..bindings..nir_intrinsic_instr$GT$9atomic_op17hac87fbb2fcb3dec8E
libvulkan_nouveau.so:_ZN8compiler3nir57_$LT$impl$u20$compiler..bindings..nir_intrinsic_instr$GT$9component17h8aa51aa64d86d397E
libvulkan_nouveau.so:_ZN8compiler3nir57_$LT$impl$u20$compiler..bindings..nir_intrinsic_instr$GT$9image_dim17h4a779e93e9aa03f0E
libvulkan_nouveau.so:_ZN8compiler3nir57_$LT$impl$u20$compiler..bindings..nir_intrinsic_instr$GT$9stream_id17h4278e42dac110402E
libvulkan_nouveau.so:_ZN8compiler3nir58_$LT$impl$u20$compiler..bindings..nir_load_const_instr$GT$6values17h22ad44e159b07171E
libvulkan_nouveau.so:_ZN8compiler3nir5AsDef11comp_as_int17h27b1fafa3bf2a2baE
libvulkan_nouveau.so:_ZN8compiler3nir5AsDef12comp_as_uint17hca44982c2b70a716E
libvulkan_nouveau.so:_ZN8compiler3nir5AsDef13as_load_const17hddafdbed16cca497E
libvulkan_nouveau.so:_ZN8compiler3nir5AsDef8bit_size17ha8eae3b5d66b9a37E
libvulkan_nouveau.so:_ZN8compiler6bitset6BitSet10next_unset17h6026b02294f54ad8E
libvulkan_nouveau.so:_ZN8compiler6bitset6BitSet13reserve_words17h3c1541dc71ec854bE
libvulkan_nouveau.so:_ZN8compiler6bitset6BitSet1s17h86632aed80fda12cE
libvulkan_nouveau.so:_ZN8compiler6bitset6BitSet3get17ha93181bc7d885e99E
libvulkan_nouveau.so:_ZN8compiler6bitset6BitSet3new17hf530809c942d0ef8E
libvulkan_nouveau.so:_ZN8compiler6bitset6BitSet4iter17h89fcf50e455b74c4E
libvulkan_nouveau.so:_ZN8compiler6bitset6BitSet5clear17hec2fe8a0abb53bf4E
libvulkan_nouveau.so:_ZN8compiler6bitset6BitSet6insert17h01f241192afcaa5aE
libvulkan_nouveau.so:_ZN8compiler6bitset6BitSet6remove17h5ee5f11b56b69d98E
libvulkan_nouveau.so:_ZN8compiler6bitset6BitSet7reserve17h55f3efb9718c05d5E
libvulkan_nouveau.so:_ZN8compiler6bitset6BitSet8is_empty17h9c32223ad5935611E
libvulkan_nouveau.so:_ZN8compiler8bindings31__IncompleteArrayField$LT$T$GT$6as_ptr17h029fada31eae467fE
libvulkan_nouveau.so:_ZN8compiler8bindings31__IncompleteArrayField$LT$T$GT$6as_ptr17h9201f82c9449ba85E
libvulkan_nouveau.so:_ZN8compiler8bindings31__IncompleteArrayField$LT$T$GT$6as_ptr17hbf9a5296fa0a60e7E
libvulkan_nouveau.so:_ZN8compiler8bindings31__IncompleteArrayField$LT$T$GT$8as_slice17h01ccfc1ae1f3b9a5E
libvulkan_nouveau.so:_ZN8compiler8bindings31__IncompleteArrayField$LT$T$GT$8as_slice17h1a4e5b7b6dd1123cE
libvulkan_nouveau.so:_ZN8compiler8bindings31__IncompleteArrayField$LT$T$GT$8as_slice17h45bc7198dbbf0327E
libvulkan_nouveau.so:_ZN8compiler9memstream9MemStream22take_utf8_string_lossy17hf71769bf5389d388E
libvulkan_nouveau.so:_ZN8compiler9memstream9MemStream3new17heed976d40f5e5aeeE
libvulkan_nouveau.so:_ZN8compiler9memstream9MemStream4seek17h583b921f730b9861E
libvulkan_nouveau.so:_ZN8compiler9memstream9MemStream4take17h97fdb226f5539a38E
libvulkan_nouveau.so:_ZN8compiler9memstream9MemStream5flush17h2a328288f8871321E
libvulkan_nouveau.so:_ZN8compiler9memstream9MemStream5reset17h52e13cf1232f9386E
libvulkan_nouveau.so:_ZN8compiler9memstream9MemStream6c_file17h52cb631ffe81392aE
libvulkan_nouveau.so:_ZN8compiler9memstream9MemStream8position17h2fef0c13eafb1bbbE
libvulkan_nouveau.so:_ZN90_$LT$std..env..ArgsOs$u20$as$u20$core..iter..traits..double_ended..DoubleEndedIterator$GT$9next_back17h9cc9c1fb3a0288aeE
libvulkan_nouveau.so:_ZN90_$LT$std..io..stdio..StderrLock$u20$as$u20$std..sys..pal..unix..kernel_copy..CopyWrite$GT$10properties17hb35e89f6e6e1bc11E
libvulkan_nouveau.so:_ZN90_$LT$std..io..stdio..StdoutLock$u20$as$u20$std..sys..pal..unix..kernel_copy..CopyWrite$GT$10properties17h56b5a3bdbf1fbfd4E
libvulkan_nouveau.so:_ZN90_$LT$std..sys..pal..unix..args..Args$u20$as$u20$core..iter..traits..iterator..Iterator$GT$4next17h09cafd957b8cc635E
libvulkan_nouveau.so:_ZN90_$LT$std..sys..pal..unix..args..Args$u20$as$u20$core..iter..traits..iterator..Iterator$GT$9size_hint17hc5607616ee2e12afE
libvulkan_nouveau.so:_ZN90_$LT$std..sys..pal..unix..process..process_common..Command$u20$as$u20$core..fmt..Debug$GT$3fmt17h6f343be265aaef9cE
libvulkan_nouveau.so:_ZN90_$LT$std..sys_common..net..LookupHost$u20$as$u20$core..convert..TryFrom$LT$$RF$str$GT$$GT$8try_from17h171c95dcc7606816E
libvulkan_nouveau.so:_ZN91_$LT$addr2line..LocationRangeUnitIter$u20$as$u20$core..iter..traits..iterator..Iterator$GT$4next17h4c9deef4c59e98acE
libvulkan_nouveau.so:_ZN91_$LT$core..slice..iter..Iter$LT$T$GT$$u20$as$u20$core..iter..traits..iterator..Iterator$GT$4next17h4ac1c250e99923d3E
libvulkan_nouveau.so:_ZN91_$LT$hashbrown..raw..RawIterHashInner$u20$as$u20$core..iter..traits..iterator..Iterator$GT$4next17hf5ab4ae40e04b714E
libvulkan_nouveau.so:_ZN91_$LT$std..backtrace_rs..symbolize..gimli..mmap..Mmap$u20$as$u20$core..ops..deref..Deref$GT$5deref17h5842e514937365b1E
libvulkan_nouveau.so:_ZN91_$LT$std..sys..pal..unix..fs..ReadDir$u20$as$u20$core..iter..traits..iterator..Iterator$GT$4next17hc2e45d5a2e67d49aE
libvulkan_nouveau.so:_ZN91_$LT$std..sys..pal..unix..process..process_common..ExitCode$u20$as$u20$core..fmt..Debug$GT$3fmt17h7e9381673042ab31E
libvulkan_nouveau.so:_ZN91_$LT$std..sys_common..net..LookupHost$u20$as$u20$core..iter..traits..iterator..Iterator$GT$4next17h4f6113ae9fb3280aE
libvulkan_nouveau.so:_ZN91_$LT$std..sys_common..wstr..WStrUnits$u20$as$u20$core..iter..traits..iterator..Iterator$GT$4next17hca1d29f2d1498d8cE
libvulkan_nouveau.so:_ZN91_$LT$std..time..SystemTime$u20$as$u20$core..ops..arith..Add$LT$core..time..Duration$GT$$GT$3add17hf8ab07ce72d8c13eE
libvulkan_nouveau.so:_ZN91_$LT$std..time..SystemTime$u20$as$u20$core..ops..arith..Sub$LT$core..time..Duration$GT$$GT$3sub17he15c411f745bb9e8E
libvulkan_nouveau.so:_ZN92_$LT$$LP$alloc..string..String$C$u16$RP$$u20$as$u20$std..net..socket_addr..ToSocketAddrs$GT$15to_socket_addrs17h6e5c126ab0e8bd3fE
libvulkan_nouveau.so:_ZN92_$LT$alloc..borrow..Cow$LT$str$GT$$u20$as$u20$core..ops..arith..AddAssign$LT$$RF$str$GT$$GT$10add_assign17h18b061a2c31cb3d5E
libvulkan_nouveau.so:_ZN92_$LT$std..panicking..begin_panic_handler..StaticStrPayload$u20$as$u20$core..fmt..Display$GT$3fmt17h77837ae7e35aa84fE
libvulkan_nouveau.so:_ZN92_$LT$std..sys..pal..unix..process..process_inner..ExitStatus$u20$as$u20$core..fmt..Debug$GT$3fmt17h209eea4c0651fbdeE
libvulkan_nouveau.so:_ZN93_$LT$alloc..collections..btree..mem..replace..PanicGuard$u20$as$u20$core..ops..drop..Drop$GT$4drop17h1fd4df55ca785df9E
libvulkan_nouveau.so:_ZN94_$LT$core..slice..iter..IterMut$LT$T$GT$$u20$as$u20$core..iter..traits..iterator..Iterator$GT$4next17ha1fa600dc1c2ea70E
libvulkan_nouveau.so:_ZN94_$LT$object..xcoff..SectionHeader32$u20$as$u20$object..read..xcoff..section..SectionHeader$GT$6s_size17hd3bd887013de8994E
libvulkan_nouveau.so:_ZN94_$LT$object..xcoff..SectionHeader32$u20$as$u20$object..read..xcoff..section..SectionHeader$GT$7s_flags17h2af8b114d9d2e501E
libvulkan_nouveau.so:_ZN94_$LT$object..xcoff..SectionHeader32$u20$as$u20$object..read..xcoff..section..SectionHeader$GT$7s_nlnno17h328fac771edab285E
libvulkan_nouveau.so:_ZN94_$LT$object..xcoff..SectionHeader32$u20$as$u20$object..read..xcoff..section..SectionHeader$GT$7s_paddr17hfc366caad23c0b33E
libvulkan_nouveau.so:_ZN94_$LT$object..xcoff..SectionHeader32$u20$as$u20$object..read..xcoff..section..SectionHeader$GT$7s_vaddr17h7494c90e98f68b22E
libvulkan_nouveau.so:_ZN94_$LT$object..xcoff..SectionHeader32$u20$as$u20$object..read..xcoff..section..SectionHeader$GT$8s_nreloc17h875367ee82be16d5E
libvulkan_nouveau.so:_ZN94_$LT$object..xcoff..SectionHeader32$u20$as$u20$object..read..xcoff..section..SectionHeader$GT$8s_relptr17h88152f4dc194db94E
libvulkan_nouveau.so:_ZN94_$LT$object..xcoff..SectionHeader32$u20$as$u20$object..read..xcoff..section..SectionHeader$GT$8s_scnptr17hfa75a90ce48064d7E
libvulkan_nouveau.so:_ZN94_$LT$object..xcoff..SectionHeader32$u20$as$u20$object..read..xcoff..section..SectionHeader$GT$9s_lnnoptr17hb9613e9912414a90E
libvulkan_nouveau.so:_ZN94_$LT$object..xcoff..SectionHeader64$u20$as$u20$object..read..xcoff..section..SectionHeader$GT$6s_size17h11a10d6c60d7ebfeE
libvulkan_nouveau.so:_ZN94_$LT$object..xcoff..SectionHeader64$u20$as$u20$object..read..xcoff..section..SectionHeader$GT$7s_flags17h1cc5aaeab9b24ff8E
libvulkan_nouveau.so:_ZN94_$LT$object..xcoff..SectionHeader64$u20$as$u20$object..read..xcoff..section..SectionHeader$GT$7s_nlnno17h9ff5a5f192851f61E
libvulkan_nouveau.so:_ZN94_$LT$object..xcoff..SectionHeader64$u20$as$u20$object..read..xcoff..section..SectionHeader$GT$7s_paddr17h8b8a212e3cd0f794E
libvulkan_nouveau.so:_ZN94_$LT$object..xcoff..SectionHeader64$u20$as$u20$object..read..xcoff..section..SectionHeader$GT$7s_vaddr17h5de9a3106831291dE
libvulkan_nouveau.so:_ZN94_$LT$object..xcoff..SectionHeader64$u20$as$u20$object..read..xcoff..section..SectionHeader$GT$8s_nreloc17ha2746cfbe6d5040fE
libvulkan_nouveau.so:_ZN94_$LT$object..xcoff..SectionHeader64$u20$as$u20$object..read..xcoff..section..SectionHeader$GT$8s_relptr17h8e92d2a47cf014dbE
libvulkan_nouveau.so:_ZN94_$LT$object..xcoff..SectionHeader64$u20$as$u20$object..read..xcoff..section..SectionHeader$GT$8s_scnptr17h2251fbd637dd818eE
libvulkan_nouveau.so:_ZN94_$LT$object..xcoff..SectionHeader64$u20$as$u20$object..read..xcoff..section..SectionHeader$GT$9s_lnnoptr17hd5690327979badc7E
libvulkan_nouveau.so:_ZN94_$LT$std..sys..pal..unix..os..SplitPaths$u20$as$u20$core..iter..traits..iterator..Iterator$GT$4next17hc4cae7a786b7f948E
libvulkan_nouveau.so:_ZN94_$LT$std..sys..pal..unix..process..process_common..CommandArgs$u20$as$u20$core..fmt..Debug$GT$3fmt17hafa290e7d8b7be58E
libvulkan_nouveau.so:_ZN94_$LT$std..sys..pal..unix..process..process_inner..ExitStatus$u20$as$u20$core..fmt..Display$GT$3fmt17hcbf1b517181dc812E
libvulkan_nouveau.so:_ZN94_$LT$std..time..Instant$u20$as$u20$core..ops..arith..AddAssign$LT$core..time..Duration$GT$$GT$10add_assign17hc86a617bf087f75eE
libvulkan_nouveau.so:_ZN94_$LT$std..time..Instant$u20$as$u20$core..ops..arith..SubAssign$LT$core..time..Duration$GT$$GT$10sub_assign17hc30a595445abe4bbE
libvulkan_nouveau.so:_ZN95_$LT$compiler..nir..ExecListIter$LT$T$GT$$u20$as$u20$core..iter..traits..iterator..Iterator$GT$4next17h62bf79d89c12a5efE
libvulkan_nouveau.so:_ZN95_$LT$nvidia_headers..nvh_classes_cla097_mthd..SetBlend$u20$as$u20$nvidia_headers..ArrayMthd$GT$4addr17h22c1fd17fbbced92E
libvulkan_nouveau.so:_ZN95_$LT$nvidia_headers..nvh_classes_clb097_mthd..SetBlend$u20$as$u20$nvidia_headers..ArrayMthd$GT$4addr17had7d90a917bd246cE
libvulkan_nouveau.so:_ZN95_$LT$nvidia_headers..nvh_classes_clb197_mthd..SetBlend$u20$as$u20$nvidia_headers..ArrayMthd$GT$4addr17h5cb596eb3f40d09eE
libvulkan_nouveau.so:_ZN95_$LT$nvidia_headers..nvh_classes_clc097_mthd..SetBlend$u20$as$u20$nvidia_headers..ArrayMthd$GT$4addr17h9cc691be40859d2fE
libvulkan_nouveau.so:_ZN95_$LT$nvidia_headers..nvh_classes_clc397_mthd..SetBlend$u20$as$u20$nvidia_headers..ArrayMthd$GT$4addr17h342e3beec4a4244aE
libvulkan_nouveau.so:_ZN95_$LT$nvidia_headers..nvh_classes_clc797_mthd..SetBlend$u20$as$u20$nvidia_headers..ArrayMthd$GT$4addr17h73e52faa37abdf0cE
libvulkan_nouveau.so:_ZN95_$LT$std..panicking..begin_panic_handler..FormatStringPayload$u20$as$u20$core..fmt..Display$GT$3fmt17hf4a0e7274e2f0722E
libvulkan_nouveau.so:_ZN95_$LT$std..path..Components$u20$as$u20$core..iter..traits..double_ended..DoubleEndedIterator$GT$9next_back17h0d5a760b661da510E
libvulkan_nouveau.so:_ZN95_$LT$std..process..CommandArgs$u20$as$u20$core..iter..traits..exact_size..ExactSizeIterator$GT$3len17h5af4fc8146ad2551E
libvulkan_nouveau.so:_ZN96_$LT$std..io..error..Error$u20$as$u20$core..convert..From$LT$alloc..ffi..c_str..NulError$GT$$GT$4from17h1143d8e64e6b353dE
libvulkan_nouveau.so:_ZN96_$LT$std..panicking..rust_panic_without_hook..RewrapBox$u20$as$u20$core..panic..PanicPayload$GT$8take_box17h1d3c8cab85d947bbE
libvulkan_nouveau.so:_ZN96_$LT$std..sys_common..process..CommandEnvs$u20$as$u20$core..iter..traits..iterator..Iterator$GT$4next17h08d224052868d7f5E
libvulkan_nouveau.so:_ZN97_$LT$alloc..string..String$u20$as$u20$core..convert..From$LT$alloc..boxed..Box$LT$str$GT$$GT$$GT$4from17hb6be9f0174bda2c4E
libvulkan_nouveau.so:_ZN97_$LT$core..char..ToLowercase$u20$as$u20$core..iter..traits..double_ended..DoubleEndedIterator$GT$15advance_back_by17hf80ee13e236b6a96E
libvulkan_nouveau.so:_ZN97_$LT$core..char..ToLowercase$u20$as$u20$core..iter..traits..double_ended..DoubleEndedIterator$GT$9next_back17ha0513a0f1c286730E
libvulkan_nouveau.so:_ZN97_$LT$core..char..ToUppercase$u20$as$u20$core..iter..traits..double_ended..DoubleEndedIterator$GT$15advance_back_by17hf44ac9ae14c10cb6E
libvulkan_nouveau.so:_ZN97_$LT$core..char..ToUppercase$u20$as$u20$core..iter..traits..double_ended..DoubleEndedIterator$GT$9next_back17h7f86fafa340e7424E
libvulkan_nouveau.so:_ZN97_$LT$nvidia_headers..nvh_classes_cla097_mthd..SetCtWrite$u20$as$u20$nvidia_headers..ArrayMthd$GT$4addr17h54d8bfd96b6940d7E
libvulkan_nouveau.so:_ZN97_$LT$nvidia_headers..nvh_classes_cla097_mthd..SetVabData$u20$as$u20$nvidia_headers..ArrayMthd$GT$4addr17h91909e76363c9d6cE
libvulkan_nouveau.so:_ZN97_$LT$nvidia_headers..nvh_classes_clb097_mthd..SetCtWrite$u20$as$u20$nvidia_headers..ArrayMthd$GT$4addr17h1ae98d6c358b56e6E
libvulkan_nouveau.so:_ZN97_$LT$nvidia_headers..nvh_classes_clb197_mthd..SetCtWrite$u20$as$u20$nvidia_headers..ArrayMthd$GT$4addr17h10645e4a7473e141E
libvulkan_nouveau.so:_ZN97_$LT$nvidia_headers..nvh_classes_clc097_mthd..SetCtWrite$u20$as$u20$nvidia_headers..ArrayMthd$GT$4addr17h5c2d3ad8e49f4d4eE
libvulkan_nouveau.so:_ZN97_$LT$nvidia_headers..nvh_classes_clc397_mthd..SetCtWrite$u20$as$u20$nvidia_headers..ArrayMthd$GT$4addr17h07160c42babb19ceE
libvulkan_nouveau.so:_ZN97_$LT$nvidia_headers..nvh_classes_clc797_mthd..SetCtWrite$u20$as$u20$nvidia_headers..ArrayMthd$GT$4addr17h12091ec8729f1e23E
libvulkan_nouveau.so:_ZN97_$LT$std..os..unix..net..listener..Incoming$u20$as$u20$core..iter..traits..iterator..Iterator$GT$4next17h35e030a09b729025E
libvulkan_nouveau.so:_ZN97_$LT$std..sys..pal..unix..process..process_inner..ExitStatusError$u20$as$u20$core..fmt..Debug$GT$3fmt17h81656b4dd07436efE
libvulkan_nouveau.so:_ZN97_$LT$std..time..SystemTime$u20$as$u20$core..ops..arith..AddAssign$LT$core..time..Duration$GT$$GT$10add_assign17hf5a6211956684fd2E
libvulkan_nouveau.so:_ZN97_$LT$std..time..SystemTime$u20$as$u20$core..ops..arith..SubAssign$LT$core..time..Duration$GT$$GT$10sub_assign17h775d4602f86bf070E
libvulkan_nouveau.so:_ZN98_$LT$alloc..string..String$u20$as$u20$core..convert..From$LT$alloc..borrow..Cow$LT$str$GT$$GT$$GT$4from17h5938fdbff2e7dcedE
libvulkan_nouveau.so:_ZN98_$LT$nvidia_headers..nvh_classes_cl902d_mthd..CallMmeData$u20$as$u20$nvidia_headers..ArrayMthd$GT$4addr17h32161df2947bea2bE
libvulkan_nouveau.so:_ZN98_$LT$nvidia_headers..nvh_classes_cl9039_mthd..CallMmeData$u20$as$u20$nvidia_headers..ArrayMthd$GT$4addr17h9c12c443ac697680E
libvulkan_nouveau.so:_ZN98_$LT$nvidia_headers..nvh_classes_cl90c0_mthd..CallMmeData$u20$as$u20$nvidia_headers..ArrayMthd$GT$4addr17h504baa27d2ddfe7fE
libvulkan_nouveau.so:_ZN98_$LT$nvidia_headers..nvh_classes_cla097_mthd..CallMmeData$u20$as$u20$nvidia_headers..ArrayMthd$GT$4addr17hf5b89b3d0f246adeE
libvulkan_nouveau.so:_ZN98_$LT$nvidia_headers..nvh_classes_clb097_mthd..CallMmeData$u20$as$u20$nvidia_headers..ArrayMthd$GT$4addr17h195ac48a96d25bf1E
libvulkan_nouveau.so:_ZN98_$LT$nvidia_headers..nvh_classes_clb197_mthd..CallMmeData$u20$as$u20$nvidia_headers..ArrayMthd$GT$4addr17he94bce8326a3e8a1E
libvulkan_nouveau.so:_ZN98_$LT$nvidia_headers..nvh_classes_clc097_mthd..CallMmeData$u20$as$u20$nvidia_headers..ArrayMthd$GT$4addr17hfa06b51e9c030b0cE
libvulkan_nouveau.so:_ZN98_$LT$nvidia_headers..nvh_classes_clc397_mthd..CallMmeData$u20$as$u20$nvidia_headers..ArrayMthd$GT$4addr17hf01380aac365e172E
libvulkan_nouveau.so:_ZN98_$LT$nvidia_headers..nvh_classes_clc797_mthd..CallMmeData$u20$as$u20$nvidia_headers..ArrayMthd$GT$4addr17hb607ac3ec374f93dE
libvulkan_nouveau.so:_ZN98_$LT$nvidia_headers..nvh_classes_clc7c0_mthd..CallMmeData$u20$as$u20$nvidia_headers..ArrayMthd$GT$4addr17hc6b3d95f8e14dfa0E
libvulkan_nouveau.so:_ZN98_$LT$std..os..unix..net..ancillary..Messages$u20$as$u20$core..iter..traits..iterator..Iterator$GT$4next17h001d98ed80069b8aE
libvulkan_nouveau.so:_ZN98_$LT$std..sys..backtrace..BacktraceLock..print..DisplayBacktrace$u20$as$u20$core..fmt..Display$GT$3fmt17h8757d517522a8378E
libvulkan_nouveau.so:_ZN99_$LT$nvidia_headers..nvh_classes_cl902d_mthd..CallMmeMacro$u20$as$u20$nvidia_headers..ArrayMthd$GT$4addr17h3b243531e6c08b86E
libvulkan_nouveau.so:_ZN99_$LT$nvidia_headers..nvh_classes_cl9039_mthd..CallMmeMacro$u20$as$u20$nvidia_headers..ArrayMthd$GT$4addr17h2159ed7efece0187E
libvulkan_nouveau.so:_ZN99_$LT$nvidia_headers..nvh_classes_cl90c0_mthd..CallMmeMacro$u20$as$u20$nvidia_headers..ArrayMthd$GT$4addr17h493c9b8a50d4dd2eE
libvulkan_nouveau.so:_ZN99_$LT$nvidia_headers..nvh_classes_cla097_mthd..CallMmeMacro$u20$as$u20$nvidia_headers..ArrayMthd$GT$4addr17hf34b75663c75736aE
libvulkan_nouveau.so:_ZN99_$LT$nvidia_headers..nvh_classes_clb097_mthd..CallMmeMacro$u20$as$u20$nvidia_headers..ArrayMthd$GT$4addr17hfea2b8b5896bfe14E
libvulkan_nouveau.so:_ZN99_$LT$nvidia_headers..nvh_classes_clb197_mthd..CallMmeMacro$u20$as$u20$nvidia_headers..ArrayMthd$GT$4addr17h26592de49ee000bbE
libvulkan_nouveau.so:_ZN99_$LT$nvidia_headers..nvh_classes_clc097_mthd..CallMmeMacro$u20$as$u20$nvidia_headers..ArrayMthd$GT$4addr17h31dc5861494cfe96E
libvulkan_nouveau.so:_ZN99_$LT$nvidia_headers..nvh_classes_clc397_mthd..CallMmeMacro$u20$as$u20$nvidia_headers..ArrayMthd$GT$4addr17hda0e996051864fc4E
libvulkan_nouveau.so:_ZN99_$LT$nvidia_headers..nvh_classes_clc797_mthd..CallMmeMacro$u20$as$u20$nvidia_headers..ArrayMthd$GT$4addr17h23f86edf692ab182E
libvulkan_nouveau.so:_ZN99_$LT$nvidia_headers..nvh_classes_clc7c0_mthd..CallMmeMacro$u20$as$u20$nvidia_headers..ArrayMthd$GT$4addr17h5ff8cf3d6fe88910E
libvulkan_nouveau.so:_ZN99_$LT$std..os..unix..net..ancillary..ScmRights$u20$as$u20$core..iter..traits..iterator..Iterator$GT$4next17h689e70cc99904b45E
libvulkan_nouveau.so:_ZN99_$LT$std..panicking..begin_panic_handler..StaticStrPayload$u20$as$u20$core..panic..PanicPayload$GT$8take_box17h5dcd8ec06beda88eE
libvulkan_nouveau.so:_ZN9addr2line13demangle_auto17h767a98f15eefb54cE
libvulkan_nouveau.so:_ZN9addr2line9path_push17h76bfea102f652ab2E
libvulkan_nouveau.so:_ZN9hashbrown3raw11Fallibility17capacity_overflow17hea35fa41ec2b915aE
libvulkan_nouveau.so:_ZN9hashbrown3raw11Fallibility9alloc_err17hf9e4c5ae60361525E
libvulkan_nouveau.so:_ZN9hashbrown3raw16RawIterHashInner3new17hffb86a2c3a694dcdE
libvulkan_nouveau.so:__rdl_oom
libvulkan_nouveau.so:__rust_alloc
libvulkan_nouveau.so:__rust_alloc_error_handler
libvulkan_nouveau.so:__rust_alloc_zeroed
libvulkan_nouveau.so:__rust_dealloc
libvulkan_nouveau.so:__rust_drop_panic
libvulkan_nouveau.so:__rust_foreign_exception
libvulkan_nouveau.so:__rust_panic_cleanup
libvulkan_nouveau.so:__rust_realloc
libvulkan_nouveau.so:__rust_start_panic
libvulkan_nouveau.so:nak_compile_shader
libvulkan_nouveau.so:nak_compiler_create
libvulkan_nouveau.so:nak_compiler_destroy
libvulkan_nouveau.so:nak_debug_flags
libvulkan_nouveau.so:nak_fill_qmd
libvulkan_nouveau.so:nak_get_qmd_dispatch_size_layout
libvulkan_nouveau.so:nak_nir_options
libvulkan_nouveau.so:nak_shader_bin_destroy
libvulkan_nouveau.so:nak_should_print_nir
libvulkan_nouveau.so:nil_buffer_fill_tic
libvulkan_nouveau.so:nil_choose_sample_layout
libvulkan_nouveau.so:nil_copy_linear_to_tiled
libvulkan_nouveau.so:nil_copy_tiled_to_linear
libvulkan_nouveau.so:nil_drm_format_mods_for_format
libvulkan_nouveau.so:nil_extent4d_px_to_B
libvulkan_nouveau.so:nil_extent4d_px_to_el
libvulkan_nouveau.so:nil_extent4d_px_to_tl
libvulkan_nouveau.so:nil_fill_null_tic
libvulkan_nouveau.so:nil_format
libvulkan_nouveau.so:nil_format_supports_blending
libvulkan_nouveau.so:nil_format_supports_buffer
libvulkan_nouveau.so:nil_format_supports_color_targets
libvulkan_nouveau.so:nil_format_supports_depth_stencil
libvulkan_nouveau.so:nil_format_supports_filtering
libvulkan_nouveau.so:nil_format_supports_storage
libvulkan_nouveau.so:nil_format_supports_texturing
libvulkan_nouveau.so:nil_format_to_color_target
libvulkan_nouveau.so:nil_format_to_depth_stencil
libvulkan_nouveau.so:nil_gob_type_height
libvulkan_nouveau.so:nil_image_3d_level_as_2d_array
libvulkan_nouveau.so:nil_image_fill_tic
libvulkan_nouveau.so:nil_image_for_level
libvulkan_nouveau.so:nil_image_level_as_uncompressed
libvulkan_nouveau.so:nil_image_level_depth_stride_B
libvulkan_nouveau.so:nil_image_level_extent_px
libvulkan_nouveau.so:nil_image_level_extent_sa
libvulkan_nouveau.so:nil_image_level_layer_offset_B
libvulkan_nouveau.so:nil_image_level_layer_size_B
libvulkan_nouveau.so:nil_image_level_size_B
libvulkan_nouveau.so:nil_image_level_z_offset_B
libvulkan_nouveau.so:nil_image_mip_tail_offset_B
libvulkan_nouveau.so:nil_image_mip_tail_size_B
libvulkan_nouveau.so:nil_image_new
libvulkan_nouveau.so:nil_msaa_image_as_sa
libvulkan_nouveau.so:nil_offset4d_px_to_B
libvulkan_nouveau.so:nil_offset4d_px_to_el
libvulkan_nouveau.so:nil_offset4d_px_to_tl
libvulkan_nouveau.so:nil_px_extent_sa
libvulkan_nouveau.so:nil_sample_layout_samples
libvulkan_nouveau.so:nil_sample_offset
libvulkan_nouveau.so:nil_select_best_drm_format_mod
libvulkan_nouveau.so:nil_sparse_block_extent_px
libvulkan_nouveau.so:nil_tiling_size_B
libvulkan_nouveau.so:rust_begin_unwind
libvulkan_nouveau.so:rust_eh_personality
libvulkan_nouveau.so:rust_panic
libvulkan_nouveau.so:vk_icdGetInstanceProcAddr
libvulkan_nouveau.so:vk_icdGetPhysicalDeviceProcAddr
libvulkan_nouveau.so:vk_icdNegotiateLoaderICDInterfaceVersion
libvulkan_radeon.so:_ZNSt6vectorIjSaIjEE17_M_default_appendEj
libvulkan_radeon.so:vk_icdGetInstanceProcAddr
libvulkan_radeon.so:vk_icdGetPhysicalDeviceProcAddr
libvulkan_radeon.so:vk_icdNegotiateLoaderICDInterfaceVersion
libvulkan_virtio.so:vk_icdGetInstanceProcAddr
libvulkan_virtio.so:vk_icdGetPhysicalDeviceProcAddr
libvulkan_virtio.so:vk_icdNegotiateLoaderICDInterfaceVersion
libxatracker.so.2:xa_composite_allocation
libxatracker.so.2:xa_composite_check_accelerated
libxatracker.so.2:xa_composite_done
libxatracker.so.2:xa_composite_prepare
libxatracker.so.2:xa_composite_rect
libxatracker.so.2:xa_context_create
libxatracker.so.2:xa_context_default
libxatracker.so.2:xa_context_destroy
libxatracker.so.2:xa_context_flush
libxatracker.so.2:xa_copy
libxatracker.so.2:xa_copy_done
libxatracker.so.2:xa_copy_prepare
libxatracker.so.2:xa_fence_destroy
libxatracker.so.2:xa_fence_get
libxatracker.so.2:xa_fence_wait
libxatracker.so.2:xa_format_check_supported
libxatracker.so.2:xa_solid
libxatracker.so.2:xa_solid_done
libxatracker.so.2:xa_solid_prepare
libxatracker.so.2:xa_surface_create
libxatracker.so.2:xa_surface_dma
libxatracker.so.2:xa_surface_format
libxatracker.so.2:xa_surface_from_handle
libxatracker.so.2:xa_surface_from_handle2
libxatracker.so.2:xa_surface_handle
libxatracker.so.2:xa_surface_map
libxatracker.so.2:xa_surface_redefine
libxatracker.so.2:xa_surface_ref
libxatracker.so.2:xa_surface_unmap
libxatracker.so.2:xa_surface_unref
libxatracker.so.2:xa_tracker_create
libxatracker.so.2:xa_tracker_destroy
libxatracker.so.2:xa_tracker_version
libxatracker.so.2:xa_yuv_planar_blit
